   1               		.file	"lcd.c"
   2               	__SP_H__ = 0x3e
   3               	__SP_L__ = 0x3d
   4               	__SREG__ = 0x3f
   5               	__tmp_reg__ = 0
   6               	__zero_reg__ = 1
   8               		.text
   9               	.Ltext0:
 106               	toggle_e:
   1:/Users/atakane/Documents/Electronics/IoClock/IoClock/lcd.c **** /****************************************************************************
   2:/Users/atakane/Documents/Electronics/IoClock/IoClock/lcd.c ****  Title:     HD44780U LCD library
   3:/Users/atakane/Documents/Electronics/IoClock/IoClock/lcd.c ****  Author:    Peter Fleury <pfleury@gmx.ch>  http://tinyurl.com/peterfleury
   4:/Users/atakane/Documents/Electronics/IoClock/IoClock/lcd.c ****  File:	    $Id: lcd.c,v 1.15.2.2 2015/01/17 12:16:05 peter Exp $
   5:/Users/atakane/Documents/Electronics/IoClock/IoClock/lcd.c ****  Software:  AVR-GCC 3.3 
   6:/Users/atakane/Documents/Electronics/IoClock/IoClock/lcd.c ****  Target:    any AVR device, memory mapped mode only for AT90S4414/8515/Mega
   7:/Users/atakane/Documents/Electronics/IoClock/IoClock/lcd.c **** 
   8:/Users/atakane/Documents/Electronics/IoClock/IoClock/lcd.c ****  DESCRIPTION
   9:/Users/atakane/Documents/Electronics/IoClock/IoClock/lcd.c ****        Basic routines for interfacing a HD44780U-based text lcd display
  10:/Users/atakane/Documents/Electronics/IoClock/IoClock/lcd.c **** 
  11:/Users/atakane/Documents/Electronics/IoClock/IoClock/lcd.c ****        Originally based on Volker Oth's lcd library,
  12:/Users/atakane/Documents/Electronics/IoClock/IoClock/lcd.c ****        changed lcd_init(), added additional constants for lcd_command(),
  13:/Users/atakane/Documents/Electronics/IoClock/IoClock/lcd.c ****        added 4-bit I/O mode, improved and optimized code.
  14:/Users/atakane/Documents/Electronics/IoClock/IoClock/lcd.c **** 
  15:/Users/atakane/Documents/Electronics/IoClock/IoClock/lcd.c ****        Library can be operated in memory mapped mode (LCD_IO_MODE=0) or in 
  16:/Users/atakane/Documents/Electronics/IoClock/IoClock/lcd.c ****        4-bit IO port mode (LCD_IO_MODE=1). 8-bit IO port mode not supported.
  17:/Users/atakane/Documents/Electronics/IoClock/IoClock/lcd.c ****        
  18:/Users/atakane/Documents/Electronics/IoClock/IoClock/lcd.c ****        Memory mapped mode compatible with Kanda STK200, but supports also
  19:/Users/atakane/Documents/Electronics/IoClock/IoClock/lcd.c ****        generation of R/W signal through A8 address line.
  20:/Users/atakane/Documents/Electronics/IoClock/IoClock/lcd.c **** 
  21:/Users/atakane/Documents/Electronics/IoClock/IoClock/lcd.c ****  USAGE
  22:/Users/atakane/Documents/Electronics/IoClock/IoClock/lcd.c ****        See the C include lcd.h file for a description of each function
  23:/Users/atakane/Documents/Electronics/IoClock/IoClock/lcd.c ****        
  24:/Users/atakane/Documents/Electronics/IoClock/IoClock/lcd.c **** *****************************************************************************/
  25:/Users/atakane/Documents/Electronics/IoClock/IoClock/lcd.c **** #include <inttypes.h>
  26:/Users/atakane/Documents/Electronics/IoClock/IoClock/lcd.c **** #include <avr/io.h>
  27:/Users/atakane/Documents/Electronics/IoClock/IoClock/lcd.c **** #include <avr/pgmspace.h>
  28:/Users/atakane/Documents/Electronics/IoClock/IoClock/lcd.c **** #include <util/delay.h>
  29:/Users/atakane/Documents/Electronics/IoClock/IoClock/lcd.c **** #include "lcd.h"
  30:/Users/atakane/Documents/Electronics/IoClock/IoClock/lcd.c **** 
  31:/Users/atakane/Documents/Electronics/IoClock/IoClock/lcd.c **** 
  32:/Users/atakane/Documents/Electronics/IoClock/IoClock/lcd.c **** 
  33:/Users/atakane/Documents/Electronics/IoClock/IoClock/lcd.c **** /* 
  34:/Users/atakane/Documents/Electronics/IoClock/IoClock/lcd.c **** ** constants/macros 
  35:/Users/atakane/Documents/Electronics/IoClock/IoClock/lcd.c **** */
  36:/Users/atakane/Documents/Electronics/IoClock/IoClock/lcd.c **** #define DDR(x) (*(&x - 1))      /* address of data direction register of port x */
  37:/Users/atakane/Documents/Electronics/IoClock/IoClock/lcd.c **** #if defined(__AVR_ATmega64__) || defined(__AVR_ATmega128__)
  38:/Users/atakane/Documents/Electronics/IoClock/IoClock/lcd.c ****     /* on ATmega64/128 PINF is on port 0x00 and not 0x60 */
  39:/Users/atakane/Documents/Electronics/IoClock/IoClock/lcd.c ****     #define PIN(x) ( &PORTF==&(x) ? _SFR_IO8(0x00) : (*(&x - 2)) )
  40:/Users/atakane/Documents/Electronics/IoClock/IoClock/lcd.c **** #else
  41:/Users/atakane/Documents/Electronics/IoClock/IoClock/lcd.c **** 	#define PIN(x) (*(&x - 2))    /* address of input register of port x          */
  42:/Users/atakane/Documents/Electronics/IoClock/IoClock/lcd.c **** #endif
  43:/Users/atakane/Documents/Electronics/IoClock/IoClock/lcd.c **** 
  44:/Users/atakane/Documents/Electronics/IoClock/IoClock/lcd.c **** 
  45:/Users/atakane/Documents/Electronics/IoClock/IoClock/lcd.c **** #if LCD_IO_MODE
  46:/Users/atakane/Documents/Electronics/IoClock/IoClock/lcd.c **** #define lcd_e_delay()   _delay_us(LCD_DELAY_ENABLE_PULSE)
  47:/Users/atakane/Documents/Electronics/IoClock/IoClock/lcd.c **** #define lcd_e_high()    LCD_E_PORT  |=  _BV(LCD_E_PIN);
  48:/Users/atakane/Documents/Electronics/IoClock/IoClock/lcd.c **** #define lcd_e_low()     LCD_E_PORT  &= ~_BV(LCD_E_PIN);
  49:/Users/atakane/Documents/Electronics/IoClock/IoClock/lcd.c **** #define lcd_e_toggle()  toggle_e()
  50:/Users/atakane/Documents/Electronics/IoClock/IoClock/lcd.c **** #define lcd_rw_high()   LCD_RW_PORT |=  _BV(LCD_RW_PIN)
  51:/Users/atakane/Documents/Electronics/IoClock/IoClock/lcd.c **** #define lcd_rw_low()    LCD_RW_PORT &= ~_BV(LCD_RW_PIN)
  52:/Users/atakane/Documents/Electronics/IoClock/IoClock/lcd.c **** #define lcd_rs_high()   LCD_RS_PORT |=  _BV(LCD_RS_PIN)
  53:/Users/atakane/Documents/Electronics/IoClock/IoClock/lcd.c **** #define lcd_rs_low()    LCD_RS_PORT &= ~_BV(LCD_RS_PIN)
  54:/Users/atakane/Documents/Electronics/IoClock/IoClock/lcd.c **** #endif
  55:/Users/atakane/Documents/Electronics/IoClock/IoClock/lcd.c **** 
  56:/Users/atakane/Documents/Electronics/IoClock/IoClock/lcd.c **** #if LCD_IO_MODE
  57:/Users/atakane/Documents/Electronics/IoClock/IoClock/lcd.c **** #if LCD_LINES==1
  58:/Users/atakane/Documents/Electronics/IoClock/IoClock/lcd.c **** #define LCD_FUNCTION_DEFAULT    LCD_FUNCTION_4BIT_1LINE 
  59:/Users/atakane/Documents/Electronics/IoClock/IoClock/lcd.c **** #else
  60:/Users/atakane/Documents/Electronics/IoClock/IoClock/lcd.c **** #define LCD_FUNCTION_DEFAULT    LCD_FUNCTION_4BIT_2LINES 
  61:/Users/atakane/Documents/Electronics/IoClock/IoClock/lcd.c **** #endif
  62:/Users/atakane/Documents/Electronics/IoClock/IoClock/lcd.c **** #else
  63:/Users/atakane/Documents/Electronics/IoClock/IoClock/lcd.c **** #if LCD_LINES==1
  64:/Users/atakane/Documents/Electronics/IoClock/IoClock/lcd.c **** #define LCD_FUNCTION_DEFAULT    LCD_FUNCTION_8BIT_1LINE
  65:/Users/atakane/Documents/Electronics/IoClock/IoClock/lcd.c **** #else
  66:/Users/atakane/Documents/Electronics/IoClock/IoClock/lcd.c **** #define LCD_FUNCTION_DEFAULT    LCD_FUNCTION_8BIT_2LINES
  67:/Users/atakane/Documents/Electronics/IoClock/IoClock/lcd.c **** #endif
  68:/Users/atakane/Documents/Electronics/IoClock/IoClock/lcd.c **** #endif
  69:/Users/atakane/Documents/Electronics/IoClock/IoClock/lcd.c **** 
  70:/Users/atakane/Documents/Electronics/IoClock/IoClock/lcd.c **** #if LCD_CONTROLLER_KS0073
  71:/Users/atakane/Documents/Electronics/IoClock/IoClock/lcd.c **** #if LCD_LINES==4
  72:/Users/atakane/Documents/Electronics/IoClock/IoClock/lcd.c **** 
  73:/Users/atakane/Documents/Electronics/IoClock/IoClock/lcd.c **** #define KS0073_EXTENDED_FUNCTION_REGISTER_ON  0x2C   /* |0|010|1100 4-bit mode, extension-bit RE = 
  74:/Users/atakane/Documents/Electronics/IoClock/IoClock/lcd.c **** #define KS0073_EXTENDED_FUNCTION_REGISTER_OFF 0x28   /* |0|010|1000 4-bit mode, extension-bit RE = 
  75:/Users/atakane/Documents/Electronics/IoClock/IoClock/lcd.c **** #define KS0073_4LINES_MODE                    0x09   /* |0|000|1001 4 lines mode */
  76:/Users/atakane/Documents/Electronics/IoClock/IoClock/lcd.c **** 
  77:/Users/atakane/Documents/Electronics/IoClock/IoClock/lcd.c **** #endif
  78:/Users/atakane/Documents/Electronics/IoClock/IoClock/lcd.c **** #endif
  79:/Users/atakane/Documents/Electronics/IoClock/IoClock/lcd.c **** 
  80:/Users/atakane/Documents/Electronics/IoClock/IoClock/lcd.c **** /* 
  81:/Users/atakane/Documents/Electronics/IoClock/IoClock/lcd.c **** ** function prototypes 
  82:/Users/atakane/Documents/Electronics/IoClock/IoClock/lcd.c **** */
  83:/Users/atakane/Documents/Electronics/IoClock/IoClock/lcd.c **** #if LCD_IO_MODE
  84:/Users/atakane/Documents/Electronics/IoClock/IoClock/lcd.c **** static void toggle_e(void);
  85:/Users/atakane/Documents/Electronics/IoClock/IoClock/lcd.c **** #endif
  86:/Users/atakane/Documents/Electronics/IoClock/IoClock/lcd.c **** 
  87:/Users/atakane/Documents/Electronics/IoClock/IoClock/lcd.c **** /*
  88:/Users/atakane/Documents/Electronics/IoClock/IoClock/lcd.c **** ** local functions
  89:/Users/atakane/Documents/Electronics/IoClock/IoClock/lcd.c **** */
  90:/Users/atakane/Documents/Electronics/IoClock/IoClock/lcd.c **** 
  91:/Users/atakane/Documents/Electronics/IoClock/IoClock/lcd.c **** 
  92:/Users/atakane/Documents/Electronics/IoClock/IoClock/lcd.c **** /************************************************************************* 
  93:/Users/atakane/Documents/Electronics/IoClock/IoClock/lcd.c **** delay for a minimum of <us> microseconds
  94:/Users/atakane/Documents/Electronics/IoClock/IoClock/lcd.c **** the number of loops is calculated at compile-time from MCU clock frequency
  95:/Users/atakane/Documents/Electronics/IoClock/IoClock/lcd.c **** *************************************************************************/
  96:/Users/atakane/Documents/Electronics/IoClock/IoClock/lcd.c **** #define delay(us)  _delay_us(us) 
  97:/Users/atakane/Documents/Electronics/IoClock/IoClock/lcd.c **** 
  98:/Users/atakane/Documents/Electronics/IoClock/IoClock/lcd.c **** 
  99:/Users/atakane/Documents/Electronics/IoClock/IoClock/lcd.c **** #if LCD_IO_MODE
 100:/Users/atakane/Documents/Electronics/IoClock/IoClock/lcd.c **** /* toggle Enable Pin to initiate write */
 101:/Users/atakane/Documents/Electronics/IoClock/IoClock/lcd.c **** static void toggle_e(void)
 102:/Users/atakane/Documents/Electronics/IoClock/IoClock/lcd.c **** {
 108               	.LM0:
 109               	.LFBB1:
 110               	/* prologue: function */
 111               	/* frame size = 0 */
 112               	/* stack size = 0 */
 113               	.L__stack_usage = 0
 103:/Users/atakane/Documents/Electronics/IoClock/IoClock/lcd.c ****     lcd_e_high();
 115               	.LM1:
 116 0000 2D9A      		sbi 0x5,5
 117               	.LBB28:
 118               	.LBB29:
 120               	.Ltext1:
   1:/usr/local/CrossPack-AVR-20131216/avr/include/util/delay.h **** /* Copyright (c) 2002, Marek Michalkiewicz
   2:/usr/local/CrossPack-AVR-20131216/avr/include/util/delay.h ****    Copyright (c) 2004,2005,2007 Joerg Wunsch
   3:/usr/local/CrossPack-AVR-20131216/avr/include/util/delay.h ****    Copyright (c) 2007  Florin-Viorel Petrov
   4:/usr/local/CrossPack-AVR-20131216/avr/include/util/delay.h ****    All rights reserved.
   5:/usr/local/CrossPack-AVR-20131216/avr/include/util/delay.h **** 
   6:/usr/local/CrossPack-AVR-20131216/avr/include/util/delay.h ****    Redistribution and use in source and binary forms, with or without
   7:/usr/local/CrossPack-AVR-20131216/avr/include/util/delay.h ****    modification, are permitted provided that the following conditions are met:
   8:/usr/local/CrossPack-AVR-20131216/avr/include/util/delay.h **** 
   9:/usr/local/CrossPack-AVR-20131216/avr/include/util/delay.h ****    * Redistributions of source code must retain the above copyright
  10:/usr/local/CrossPack-AVR-20131216/avr/include/util/delay.h ****      notice, this list of conditions and the following disclaimer.
  11:/usr/local/CrossPack-AVR-20131216/avr/include/util/delay.h **** 
  12:/usr/local/CrossPack-AVR-20131216/avr/include/util/delay.h ****    * Redistributions in binary form must reproduce the above copyright
  13:/usr/local/CrossPack-AVR-20131216/avr/include/util/delay.h ****      notice, this list of conditions and the following disclaimer in
  14:/usr/local/CrossPack-AVR-20131216/avr/include/util/delay.h ****      the documentation and/or other materials provided with the
  15:/usr/local/CrossPack-AVR-20131216/avr/include/util/delay.h ****      distribution.
  16:/usr/local/CrossPack-AVR-20131216/avr/include/util/delay.h **** 
  17:/usr/local/CrossPack-AVR-20131216/avr/include/util/delay.h ****    * Neither the name of the copyright holders nor the names of
  18:/usr/local/CrossPack-AVR-20131216/avr/include/util/delay.h ****      contributors may be used to endorse or promote products derived
  19:/usr/local/CrossPack-AVR-20131216/avr/include/util/delay.h ****      from this software without specific prior written permission.
  20:/usr/local/CrossPack-AVR-20131216/avr/include/util/delay.h **** 
  21:/usr/local/CrossPack-AVR-20131216/avr/include/util/delay.h ****   THIS SOFTWARE IS PROVIDED BY THE COPYRIGHT HOLDERS AND CONTRIBUTORS "AS IS"
  22:/usr/local/CrossPack-AVR-20131216/avr/include/util/delay.h ****   AND ANY EXPRESS OR IMPLIED WARRANTIES, INCLUDING, BUT NOT LIMITED TO, THE
  23:/usr/local/CrossPack-AVR-20131216/avr/include/util/delay.h ****   IMPLIED WARRANTIES OF MERCHANTABILITY AND FITNESS FOR A PARTICULAR PURPOSE
  24:/usr/local/CrossPack-AVR-20131216/avr/include/util/delay.h ****   ARE DISCLAIMED. IN NO EVENT SHALL THE COPYRIGHT OWNER OR CONTRIBUTORS BE
  25:/usr/local/CrossPack-AVR-20131216/avr/include/util/delay.h ****   LIABLE FOR ANY DIRECT, INDIRECT, INCIDENTAL, SPECIAL, EXEMPLARY, OR
  26:/usr/local/CrossPack-AVR-20131216/avr/include/util/delay.h ****   CONSEQUENTIAL DAMAGES (INCLUDING, BUT NOT LIMITED TO, PROCUREMENT OF
  27:/usr/local/CrossPack-AVR-20131216/avr/include/util/delay.h ****   SUBSTITUTE GOODS OR SERVICES; LOSS OF USE, DATA, OR PROFITS; OR BUSINESS
  28:/usr/local/CrossPack-AVR-20131216/avr/include/util/delay.h ****   INTERRUPTION) HOWEVER CAUSED AND ON ANY THEORY OF LIABILITY, WHETHER IN
  29:/usr/local/CrossPack-AVR-20131216/avr/include/util/delay.h ****   CONTRACT, STRICT LIABILITY, OR TORT (INCLUDING NEGLIGENCE OR OTHERWISE)
  30:/usr/local/CrossPack-AVR-20131216/avr/include/util/delay.h ****   ARISING IN ANY WAY OUT OF THE USE OF THIS SOFTWARE, EVEN IF ADVISED OF THE
  31:/usr/local/CrossPack-AVR-20131216/avr/include/util/delay.h ****   POSSIBILITY OF SUCH DAMAGE. */
  32:/usr/local/CrossPack-AVR-20131216/avr/include/util/delay.h **** 
  33:/usr/local/CrossPack-AVR-20131216/avr/include/util/delay.h **** /* $Id$ */
  34:/usr/local/CrossPack-AVR-20131216/avr/include/util/delay.h **** 
  35:/usr/local/CrossPack-AVR-20131216/avr/include/util/delay.h **** #ifndef _UTIL_DELAY_H_
  36:/usr/local/CrossPack-AVR-20131216/avr/include/util/delay.h **** #define _UTIL_DELAY_H_ 1
  37:/usr/local/CrossPack-AVR-20131216/avr/include/util/delay.h **** 
  38:/usr/local/CrossPack-AVR-20131216/avr/include/util/delay.h **** #ifndef __HAS_DELAY_CYCLES
  39:/usr/local/CrossPack-AVR-20131216/avr/include/util/delay.h **** #define __HAS_DELAY_CYCLES 1
  40:/usr/local/CrossPack-AVR-20131216/avr/include/util/delay.h **** #endif
  41:/usr/local/CrossPack-AVR-20131216/avr/include/util/delay.h **** 
  42:/usr/local/CrossPack-AVR-20131216/avr/include/util/delay.h **** #include <inttypes.h>
  43:/usr/local/CrossPack-AVR-20131216/avr/include/util/delay.h **** #include <util/delay_basic.h>
  44:/usr/local/CrossPack-AVR-20131216/avr/include/util/delay.h **** #include <math.h>
  45:/usr/local/CrossPack-AVR-20131216/avr/include/util/delay.h **** 
  46:/usr/local/CrossPack-AVR-20131216/avr/include/util/delay.h **** /** \file */
  47:/usr/local/CrossPack-AVR-20131216/avr/include/util/delay.h **** /** \defgroup util_delay <util/delay.h>: Convenience functions for busy-wait delay loops
  48:/usr/local/CrossPack-AVR-20131216/avr/include/util/delay.h ****     \code
  49:/usr/local/CrossPack-AVR-20131216/avr/include/util/delay.h ****     #define F_CPU 1000000UL  // 1 MHz
  50:/usr/local/CrossPack-AVR-20131216/avr/include/util/delay.h ****     //#define F_CPU 14.7456E6
  51:/usr/local/CrossPack-AVR-20131216/avr/include/util/delay.h ****     #include <util/delay.h>
  52:/usr/local/CrossPack-AVR-20131216/avr/include/util/delay.h ****     \endcode
  53:/usr/local/CrossPack-AVR-20131216/avr/include/util/delay.h **** 
  54:/usr/local/CrossPack-AVR-20131216/avr/include/util/delay.h ****     \note As an alternative method, it is possible to pass the
  55:/usr/local/CrossPack-AVR-20131216/avr/include/util/delay.h ****     F_CPU macro down to the compiler from the Makefile.
  56:/usr/local/CrossPack-AVR-20131216/avr/include/util/delay.h ****     Obviously, in that case, no \c \#define statement should be
  57:/usr/local/CrossPack-AVR-20131216/avr/include/util/delay.h ****     used.
  58:/usr/local/CrossPack-AVR-20131216/avr/include/util/delay.h **** 
  59:/usr/local/CrossPack-AVR-20131216/avr/include/util/delay.h ****     The functions in this header file are wrappers around the basic
  60:/usr/local/CrossPack-AVR-20131216/avr/include/util/delay.h ****     busy-wait functions from <util/delay_basic.h>.  They are meant as
  61:/usr/local/CrossPack-AVR-20131216/avr/include/util/delay.h ****     convenience functions where actual time values can be specified
  62:/usr/local/CrossPack-AVR-20131216/avr/include/util/delay.h ****     rather than a number of cycles to wait for.  The idea behind is
  63:/usr/local/CrossPack-AVR-20131216/avr/include/util/delay.h ****     that compile-time constant expressions will be eliminated by
  64:/usr/local/CrossPack-AVR-20131216/avr/include/util/delay.h ****     compiler optimization so floating-point expressions can be used
  65:/usr/local/CrossPack-AVR-20131216/avr/include/util/delay.h ****     to calculate the number of delay cycles needed based on the CPU
  66:/usr/local/CrossPack-AVR-20131216/avr/include/util/delay.h ****     frequency passed by the macro F_CPU.
  67:/usr/local/CrossPack-AVR-20131216/avr/include/util/delay.h **** 
  68:/usr/local/CrossPack-AVR-20131216/avr/include/util/delay.h ****     \note In order for these functions to work as intended, compiler
  69:/usr/local/CrossPack-AVR-20131216/avr/include/util/delay.h ****     optimizations <em>must</em> be enabled, and the delay time
  70:/usr/local/CrossPack-AVR-20131216/avr/include/util/delay.h ****     <em>must</em> be an expression that is a known constant at
  71:/usr/local/CrossPack-AVR-20131216/avr/include/util/delay.h ****     compile-time.  If these requirements are not met, the resulting
  72:/usr/local/CrossPack-AVR-20131216/avr/include/util/delay.h ****     delay will be much longer (and basically unpredictable), and
  73:/usr/local/CrossPack-AVR-20131216/avr/include/util/delay.h ****     applications that otherwise do not use floating-point calculations
  74:/usr/local/CrossPack-AVR-20131216/avr/include/util/delay.h ****     will experience severe code bloat by the floating-point library
  75:/usr/local/CrossPack-AVR-20131216/avr/include/util/delay.h ****     routines linked into the application.
  76:/usr/local/CrossPack-AVR-20131216/avr/include/util/delay.h **** 
  77:/usr/local/CrossPack-AVR-20131216/avr/include/util/delay.h ****     The functions available allow the specification of microsecond, and
  78:/usr/local/CrossPack-AVR-20131216/avr/include/util/delay.h ****     millisecond delays directly, using the application-supplied macro
  79:/usr/local/CrossPack-AVR-20131216/avr/include/util/delay.h ****     F_CPU as the CPU clock frequency (in Hertz).
  80:/usr/local/CrossPack-AVR-20131216/avr/include/util/delay.h **** 
  81:/usr/local/CrossPack-AVR-20131216/avr/include/util/delay.h **** */
  82:/usr/local/CrossPack-AVR-20131216/avr/include/util/delay.h **** 
  83:/usr/local/CrossPack-AVR-20131216/avr/include/util/delay.h **** #if !defined(__DOXYGEN__)
  84:/usr/local/CrossPack-AVR-20131216/avr/include/util/delay.h **** static inline void _delay_us(double __us) __attribute__((always_inline));
  85:/usr/local/CrossPack-AVR-20131216/avr/include/util/delay.h **** static inline void _delay_ms(double __ms) __attribute__((always_inline));
  86:/usr/local/CrossPack-AVR-20131216/avr/include/util/delay.h **** #endif
  87:/usr/local/CrossPack-AVR-20131216/avr/include/util/delay.h **** 
  88:/usr/local/CrossPack-AVR-20131216/avr/include/util/delay.h **** #ifndef F_CPU
  89:/usr/local/CrossPack-AVR-20131216/avr/include/util/delay.h **** /* prevent compiler error by supplying a default */
  90:/usr/local/CrossPack-AVR-20131216/avr/include/util/delay.h **** # warning "F_CPU not defined for <util/delay.h>"
  91:/usr/local/CrossPack-AVR-20131216/avr/include/util/delay.h **** # define F_CPU 1000000UL
  92:/usr/local/CrossPack-AVR-20131216/avr/include/util/delay.h **** #endif
  93:/usr/local/CrossPack-AVR-20131216/avr/include/util/delay.h **** 
  94:/usr/local/CrossPack-AVR-20131216/avr/include/util/delay.h **** #ifndef __OPTIMIZE__
  95:/usr/local/CrossPack-AVR-20131216/avr/include/util/delay.h **** # warning "Compiler optimizations disabled; functions from <util/delay.h> won't work as designed"
  96:/usr/local/CrossPack-AVR-20131216/avr/include/util/delay.h **** #endif
  97:/usr/local/CrossPack-AVR-20131216/avr/include/util/delay.h **** 
  98:/usr/local/CrossPack-AVR-20131216/avr/include/util/delay.h **** #if __HAS_DELAY_CYCLES && defined(__OPTIMIZE__) && \
  99:/usr/local/CrossPack-AVR-20131216/avr/include/util/delay.h ****   !defined(__DELAY_BACKWARD_COMPATIBLE__) &&	   \
 100:/usr/local/CrossPack-AVR-20131216/avr/include/util/delay.h ****   __STDC_HOSTED__
 101:/usr/local/CrossPack-AVR-20131216/avr/include/util/delay.h **** #  include <math.h>
 102:/usr/local/CrossPack-AVR-20131216/avr/include/util/delay.h **** #endif
 103:/usr/local/CrossPack-AVR-20131216/avr/include/util/delay.h **** 
 104:/usr/local/CrossPack-AVR-20131216/avr/include/util/delay.h **** /**
 105:/usr/local/CrossPack-AVR-20131216/avr/include/util/delay.h ****    \ingroup util_delay
 106:/usr/local/CrossPack-AVR-20131216/avr/include/util/delay.h **** 
 107:/usr/local/CrossPack-AVR-20131216/avr/include/util/delay.h ****    Perform a delay of \c __ms milliseconds, using _delay_loop_2().
 108:/usr/local/CrossPack-AVR-20131216/avr/include/util/delay.h **** 
 109:/usr/local/CrossPack-AVR-20131216/avr/include/util/delay.h ****    The macro F_CPU is supposed to be defined to a
 110:/usr/local/CrossPack-AVR-20131216/avr/include/util/delay.h ****    constant defining the CPU clock frequency (in Hertz).
 111:/usr/local/CrossPack-AVR-20131216/avr/include/util/delay.h **** 
 112:/usr/local/CrossPack-AVR-20131216/avr/include/util/delay.h ****    The maximal possible delay is 262.14 ms / F_CPU in MHz.
 113:/usr/local/CrossPack-AVR-20131216/avr/include/util/delay.h **** 
 114:/usr/local/CrossPack-AVR-20131216/avr/include/util/delay.h ****    When the user request delay which exceed the maximum possible one,
 115:/usr/local/CrossPack-AVR-20131216/avr/include/util/delay.h ****    _delay_ms() provides a decreased resolution functionality. In this
 116:/usr/local/CrossPack-AVR-20131216/avr/include/util/delay.h ****    mode _delay_ms() will work with a resolution of 1/10 ms, providing
 117:/usr/local/CrossPack-AVR-20131216/avr/include/util/delay.h ****    delays up to 6.5535 seconds (independent from CPU frequency).  The
 118:/usr/local/CrossPack-AVR-20131216/avr/include/util/delay.h ****    user will not be informed about decreased resolution.
 119:/usr/local/CrossPack-AVR-20131216/avr/include/util/delay.h **** 
 120:/usr/local/CrossPack-AVR-20131216/avr/include/util/delay.h ****    If the avr-gcc toolchain has __builtin_avr_delay_cycles(unsigned long)
 121:/usr/local/CrossPack-AVR-20131216/avr/include/util/delay.h ****    support, maximal possible delay is 4294967.295 ms/ F_CPU in MHz. For
 122:/usr/local/CrossPack-AVR-20131216/avr/include/util/delay.h ****    values greater than the maximal possible delay, overflows results in
 123:/usr/local/CrossPack-AVR-20131216/avr/include/util/delay.h ****    no delay i.e., 0ms.
 124:/usr/local/CrossPack-AVR-20131216/avr/include/util/delay.h **** 
 125:/usr/local/CrossPack-AVR-20131216/avr/include/util/delay.h ****    Conversion of __us into clock cycles may not always result in integer.
 126:/usr/local/CrossPack-AVR-20131216/avr/include/util/delay.h ****    By default, the clock cycles rounded up to next integer. This ensures that
 127:/usr/local/CrossPack-AVR-20131216/avr/include/util/delay.h ****    the user gets atleast __us microseconds of delay.
 128:/usr/local/CrossPack-AVR-20131216/avr/include/util/delay.h **** 
 129:/usr/local/CrossPack-AVR-20131216/avr/include/util/delay.h ****    Alternatively, user can define __DELAY_ROUND_DOWN__ and __DELAY_ROUND_CLOSEST__
 130:/usr/local/CrossPack-AVR-20131216/avr/include/util/delay.h ****    to round down and round to closest integer.
 131:/usr/local/CrossPack-AVR-20131216/avr/include/util/delay.h **** 
 132:/usr/local/CrossPack-AVR-20131216/avr/include/util/delay.h ****    Note: The new implementation of _delay_ms(double __ms) with 
 133:/usr/local/CrossPack-AVR-20131216/avr/include/util/delay.h ****     __builtin_avr_delay_cycles(unsigned long) support is not backward compatible. 
 134:/usr/local/CrossPack-AVR-20131216/avr/include/util/delay.h ****    User can define __DELAY_BACKWARD_COMPATIBLE__ to get a backward compatible delay.
 135:/usr/local/CrossPack-AVR-20131216/avr/include/util/delay.h ****    Also, the backward compatible
 136:/usr/local/CrossPack-AVR-20131216/avr/include/util/delay.h ****    algorithm will be chosen if the code is compiled in a <em>freestanding
 137:/usr/local/CrossPack-AVR-20131216/avr/include/util/delay.h ****    environment</em> (GCC option \c -ffreestanding), as the math functions
 138:/usr/local/CrossPack-AVR-20131216/avr/include/util/delay.h ****    required for rounding are not available to the compiler then.
 139:/usr/local/CrossPack-AVR-20131216/avr/include/util/delay.h **** 
 140:/usr/local/CrossPack-AVR-20131216/avr/include/util/delay.h ****  */
 141:/usr/local/CrossPack-AVR-20131216/avr/include/util/delay.h **** void
 142:/usr/local/CrossPack-AVR-20131216/avr/include/util/delay.h **** _delay_ms(double __ms)
 143:/usr/local/CrossPack-AVR-20131216/avr/include/util/delay.h **** {
 144:/usr/local/CrossPack-AVR-20131216/avr/include/util/delay.h **** 	double __tmp ; 
 145:/usr/local/CrossPack-AVR-20131216/avr/include/util/delay.h **** #if __HAS_DELAY_CYCLES && defined(__OPTIMIZE__) && \
 146:/usr/local/CrossPack-AVR-20131216/avr/include/util/delay.h ****   !defined(__DELAY_BACKWARD_COMPATIBLE__) &&	   \
 147:/usr/local/CrossPack-AVR-20131216/avr/include/util/delay.h ****   __STDC_HOSTED__
 148:/usr/local/CrossPack-AVR-20131216/avr/include/util/delay.h **** 	uint32_t __ticks_dc;
 149:/usr/local/CrossPack-AVR-20131216/avr/include/util/delay.h **** 	extern void __builtin_avr_delay_cycles(unsigned long);
 150:/usr/local/CrossPack-AVR-20131216/avr/include/util/delay.h **** 	__tmp = ((F_CPU) / 1e3) * __ms;
 151:/usr/local/CrossPack-AVR-20131216/avr/include/util/delay.h **** 
 152:/usr/local/CrossPack-AVR-20131216/avr/include/util/delay.h **** 	#if defined(__DELAY_ROUND_DOWN__)
 153:/usr/local/CrossPack-AVR-20131216/avr/include/util/delay.h **** 		__ticks_dc = (uint32_t)fabs(__tmp);
 154:/usr/local/CrossPack-AVR-20131216/avr/include/util/delay.h **** 
 155:/usr/local/CrossPack-AVR-20131216/avr/include/util/delay.h **** 	#elif defined(__DELAY_ROUND_CLOSEST__)
 156:/usr/local/CrossPack-AVR-20131216/avr/include/util/delay.h **** 		__ticks_dc = (uint32_t)(fabs(__tmp)+0.5);
 157:/usr/local/CrossPack-AVR-20131216/avr/include/util/delay.h **** 
 158:/usr/local/CrossPack-AVR-20131216/avr/include/util/delay.h **** 	#else
 159:/usr/local/CrossPack-AVR-20131216/avr/include/util/delay.h **** 		//round up by default
 160:/usr/local/CrossPack-AVR-20131216/avr/include/util/delay.h **** 		__ticks_dc = (uint32_t)(ceil(fabs(__tmp)));
 161:/usr/local/CrossPack-AVR-20131216/avr/include/util/delay.h **** 	#endif
 162:/usr/local/CrossPack-AVR-20131216/avr/include/util/delay.h **** 
 163:/usr/local/CrossPack-AVR-20131216/avr/include/util/delay.h **** 	__builtin_avr_delay_cycles(__ticks_dc);
 164:/usr/local/CrossPack-AVR-20131216/avr/include/util/delay.h **** 
 165:/usr/local/CrossPack-AVR-20131216/avr/include/util/delay.h **** #else
 166:/usr/local/CrossPack-AVR-20131216/avr/include/util/delay.h **** 	uint16_t __ticks;
 167:/usr/local/CrossPack-AVR-20131216/avr/include/util/delay.h **** 	__tmp = ((F_CPU) / 4e3) * __ms;
 168:/usr/local/CrossPack-AVR-20131216/avr/include/util/delay.h **** 	if (__tmp < 1.0)
 169:/usr/local/CrossPack-AVR-20131216/avr/include/util/delay.h **** 		__ticks = 1;
 170:/usr/local/CrossPack-AVR-20131216/avr/include/util/delay.h **** 	else if (__tmp > 65535)
 171:/usr/local/CrossPack-AVR-20131216/avr/include/util/delay.h **** 	{
 172:/usr/local/CrossPack-AVR-20131216/avr/include/util/delay.h **** 		//	__ticks = requested delay in 1/10 ms
 173:/usr/local/CrossPack-AVR-20131216/avr/include/util/delay.h **** 		__ticks = (uint16_t) (__ms * 10.0);
 174:/usr/local/CrossPack-AVR-20131216/avr/include/util/delay.h **** 		while(__ticks)
 175:/usr/local/CrossPack-AVR-20131216/avr/include/util/delay.h **** 		{
 176:/usr/local/CrossPack-AVR-20131216/avr/include/util/delay.h **** 			// wait 1/10 ms
 177:/usr/local/CrossPack-AVR-20131216/avr/include/util/delay.h **** 			_delay_loop_2(((F_CPU) / 4e3) / 10);
 178:/usr/local/CrossPack-AVR-20131216/avr/include/util/delay.h **** 			__ticks --;
 179:/usr/local/CrossPack-AVR-20131216/avr/include/util/delay.h **** 		}
 180:/usr/local/CrossPack-AVR-20131216/avr/include/util/delay.h **** 		return;
 181:/usr/local/CrossPack-AVR-20131216/avr/include/util/delay.h **** 	}
 182:/usr/local/CrossPack-AVR-20131216/avr/include/util/delay.h **** 	else
 183:/usr/local/CrossPack-AVR-20131216/avr/include/util/delay.h **** 		__ticks = (uint16_t)__tmp;
 184:/usr/local/CrossPack-AVR-20131216/avr/include/util/delay.h **** 	_delay_loop_2(__ticks);
 185:/usr/local/CrossPack-AVR-20131216/avr/include/util/delay.h **** #endif
 186:/usr/local/CrossPack-AVR-20131216/avr/include/util/delay.h **** }
 187:/usr/local/CrossPack-AVR-20131216/avr/include/util/delay.h **** 
 188:/usr/local/CrossPack-AVR-20131216/avr/include/util/delay.h **** /**
 189:/usr/local/CrossPack-AVR-20131216/avr/include/util/delay.h ****    \ingroup util_delay
 190:/usr/local/CrossPack-AVR-20131216/avr/include/util/delay.h **** 
 191:/usr/local/CrossPack-AVR-20131216/avr/include/util/delay.h ****    Perform a delay of \c __us microseconds, using _delay_loop_1().
 192:/usr/local/CrossPack-AVR-20131216/avr/include/util/delay.h **** 
 193:/usr/local/CrossPack-AVR-20131216/avr/include/util/delay.h ****    The macro F_CPU is supposed to be defined to a
 194:/usr/local/CrossPack-AVR-20131216/avr/include/util/delay.h ****    constant defining the CPU clock frequency (in Hertz).
 195:/usr/local/CrossPack-AVR-20131216/avr/include/util/delay.h **** 
 196:/usr/local/CrossPack-AVR-20131216/avr/include/util/delay.h ****    The maximal possible delay is 768 us / F_CPU in MHz.
 197:/usr/local/CrossPack-AVR-20131216/avr/include/util/delay.h **** 
 198:/usr/local/CrossPack-AVR-20131216/avr/include/util/delay.h ****    If the user requests a delay greater than the maximal possible one,
 199:/usr/local/CrossPack-AVR-20131216/avr/include/util/delay.h ****    _delay_us() will automatically call _delay_ms() instead.  The user
 200:/usr/local/CrossPack-AVR-20131216/avr/include/util/delay.h ****    will not be informed about this case.
 201:/usr/local/CrossPack-AVR-20131216/avr/include/util/delay.h **** 
 202:/usr/local/CrossPack-AVR-20131216/avr/include/util/delay.h ****    If the avr-gcc toolchain has __builtin_avr_delay_cycles(unsigned long)
 203:/usr/local/CrossPack-AVR-20131216/avr/include/util/delay.h ****    support, maximal possible delay is 4294967.295 us/ F_CPU in MHz. For
 204:/usr/local/CrossPack-AVR-20131216/avr/include/util/delay.h ****    values greater than the maximal possible delay, overflow results in
 205:/usr/local/CrossPack-AVR-20131216/avr/include/util/delay.h ****    no delay i.e., 0us.
 206:/usr/local/CrossPack-AVR-20131216/avr/include/util/delay.h ****   
 207:/usr/local/CrossPack-AVR-20131216/avr/include/util/delay.h ****    Conversion of __us into clock cycles may not always result in integer.
 208:/usr/local/CrossPack-AVR-20131216/avr/include/util/delay.h ****    By default, the clock cycles rounded up to next integer. This ensures that
 209:/usr/local/CrossPack-AVR-20131216/avr/include/util/delay.h ****    the user gets atleast __us microseconds of delay.
 210:/usr/local/CrossPack-AVR-20131216/avr/include/util/delay.h **** 
 211:/usr/local/CrossPack-AVR-20131216/avr/include/util/delay.h ****    Alternatively, user can define __DELAY_ROUND_DOWN__ and __DELAY_ROUND_CLOSEST__
 212:/usr/local/CrossPack-AVR-20131216/avr/include/util/delay.h ****    to round down and round to closest integer.
 213:/usr/local/CrossPack-AVR-20131216/avr/include/util/delay.h ****  
 214:/usr/local/CrossPack-AVR-20131216/avr/include/util/delay.h ****    Note: The new implementation of _delay_us(double __us) with 
 215:/usr/local/CrossPack-AVR-20131216/avr/include/util/delay.h ****     __builtin_avr_delay_cycles(unsigned long) support is not backward compatible.
 216:/usr/local/CrossPack-AVR-20131216/avr/include/util/delay.h ****    User can define __DELAY_BACKWARD_COMPATIBLE__ to get a backward compatible delay.
 217:/usr/local/CrossPack-AVR-20131216/avr/include/util/delay.h ****    Also, the backward compatible
 218:/usr/local/CrossPack-AVR-20131216/avr/include/util/delay.h ****    algorithm will be chosen if the code is compiled in a <em>freestanding
 219:/usr/local/CrossPack-AVR-20131216/avr/include/util/delay.h ****    environment</em> (GCC option \c -ffreestanding), as the math functions
 220:/usr/local/CrossPack-AVR-20131216/avr/include/util/delay.h ****    required for rounding are not available to the compiler then.
 221:/usr/local/CrossPack-AVR-20131216/avr/include/util/delay.h **** 
 222:/usr/local/CrossPack-AVR-20131216/avr/include/util/delay.h ****  */
 223:/usr/local/CrossPack-AVR-20131216/avr/include/util/delay.h **** void
 224:/usr/local/CrossPack-AVR-20131216/avr/include/util/delay.h **** _delay_us(double __us)
 225:/usr/local/CrossPack-AVR-20131216/avr/include/util/delay.h **** {
 226:/usr/local/CrossPack-AVR-20131216/avr/include/util/delay.h **** 	double __tmp ; 
 227:/usr/local/CrossPack-AVR-20131216/avr/include/util/delay.h **** #if __HAS_DELAY_CYCLES && defined(__OPTIMIZE__) && \
 228:/usr/local/CrossPack-AVR-20131216/avr/include/util/delay.h ****   !defined(__DELAY_BACKWARD_COMPATIBLE__) &&	   \
 229:/usr/local/CrossPack-AVR-20131216/avr/include/util/delay.h ****   __STDC_HOSTED__
 230:/usr/local/CrossPack-AVR-20131216/avr/include/util/delay.h **** 	uint32_t __ticks_dc;
 231:/usr/local/CrossPack-AVR-20131216/avr/include/util/delay.h **** 	extern void __builtin_avr_delay_cycles(unsigned long);
 232:/usr/local/CrossPack-AVR-20131216/avr/include/util/delay.h **** 	__tmp = ((F_CPU) / 1e6) * __us;
 233:/usr/local/CrossPack-AVR-20131216/avr/include/util/delay.h **** 
 234:/usr/local/CrossPack-AVR-20131216/avr/include/util/delay.h **** 	#if defined(__DELAY_ROUND_DOWN__)
 235:/usr/local/CrossPack-AVR-20131216/avr/include/util/delay.h **** 		__ticks_dc = (uint32_t)fabs(__tmp);
 236:/usr/local/CrossPack-AVR-20131216/avr/include/util/delay.h **** 
 237:/usr/local/CrossPack-AVR-20131216/avr/include/util/delay.h **** 	#elif defined(__DELAY_ROUND_CLOSEST__)
 238:/usr/local/CrossPack-AVR-20131216/avr/include/util/delay.h **** 		__ticks_dc = (uint32_t)(fabs(__tmp)+0.5);
 239:/usr/local/CrossPack-AVR-20131216/avr/include/util/delay.h **** 
 240:/usr/local/CrossPack-AVR-20131216/avr/include/util/delay.h **** 	#else
 241:/usr/local/CrossPack-AVR-20131216/avr/include/util/delay.h **** 		//round up by default
 242:/usr/local/CrossPack-AVR-20131216/avr/include/util/delay.h **** 		__ticks_dc = (uint32_t)(ceil(fabs(__tmp)));
 243:/usr/local/CrossPack-AVR-20131216/avr/include/util/delay.h **** 	#endif
 244:/usr/local/CrossPack-AVR-20131216/avr/include/util/delay.h **** 
 245:/usr/local/CrossPack-AVR-20131216/avr/include/util/delay.h **** 	__builtin_avr_delay_cycles(__ticks_dc);
 122               	.LM2:
 123 0002 82E0      		ldi r24,lo8(2)
 124 0004 8A95      		1: dec r24
 125 0006 01F4      		brne 1b
 126 0008 00C0      		rjmp .
 127               	.LBE29:
 128               	.LBE28:
 130               	.Ltext2:
 104:/Users/atakane/Documents/Electronics/IoClock/IoClock/lcd.c ****     lcd_e_delay();
 105:/Users/atakane/Documents/Electronics/IoClock/IoClock/lcd.c ****     lcd_e_low();
 132               	.LM3:
 133 000a 2D98      		cbi 0x5,5
 134 000c 0895      		ret
 136               	.Lscope1:
 141               	lcd_write:
 106:/Users/atakane/Documents/Electronics/IoClock/IoClock/lcd.c **** }
 107:/Users/atakane/Documents/Electronics/IoClock/IoClock/lcd.c **** #endif
 108:/Users/atakane/Documents/Electronics/IoClock/IoClock/lcd.c **** 
 109:/Users/atakane/Documents/Electronics/IoClock/IoClock/lcd.c **** 
 110:/Users/atakane/Documents/Electronics/IoClock/IoClock/lcd.c **** /*************************************************************************
 111:/Users/atakane/Documents/Electronics/IoClock/IoClock/lcd.c **** Low-level function to write byte to LCD controller
 112:/Users/atakane/Documents/Electronics/IoClock/IoClock/lcd.c **** Input:    data   byte to write to LCD
 113:/Users/atakane/Documents/Electronics/IoClock/IoClock/lcd.c ****           rs     1: write data    
 114:/Users/atakane/Documents/Electronics/IoClock/IoClock/lcd.c ****                  0: write instruction
 115:/Users/atakane/Documents/Electronics/IoClock/IoClock/lcd.c **** Returns:  none
 116:/Users/atakane/Documents/Electronics/IoClock/IoClock/lcd.c **** *************************************************************************/
 117:/Users/atakane/Documents/Electronics/IoClock/IoClock/lcd.c **** #if LCD_IO_MODE
 118:/Users/atakane/Documents/Electronics/IoClock/IoClock/lcd.c **** static void lcd_write(uint8_t data,uint8_t rs) 
 119:/Users/atakane/Documents/Electronics/IoClock/IoClock/lcd.c **** {
 143               	.LM4:
 144               	.LFBB2:
 145 000e CF93      		push r28
 146 0010 DF93      		push r29
 147 0012 1F92      		push __zero_reg__
 148 0014 CDB7      		in r28,__SP_L__
 149 0016 DEB7      		in r29,__SP_H__
 150               	/* prologue: function */
 151               	/* frame size = 1 */
 152               	/* stack size = 3 */
 153               	.L__stack_usage = 3
 120:/Users/atakane/Documents/Electronics/IoClock/IoClock/lcd.c ****     unsigned char dataBits ;
 121:/Users/atakane/Documents/Electronics/IoClock/IoClock/lcd.c **** 
 122:/Users/atakane/Documents/Electronics/IoClock/IoClock/lcd.c **** 
 123:/Users/atakane/Documents/Electronics/IoClock/IoClock/lcd.c ****     if (rs) {        /* write data        (RS=1, RW=0) */
 155               	.LM5:
 156 0018 6623      		tst r22
 157 001a 01F0      		breq .L3
 124:/Users/atakane/Documents/Electronics/IoClock/IoClock/lcd.c ****        lcd_rs_high();
 159               	.LM6:
 160 001c 419A      		sbi 0x8,1
 161 001e 00C0      		rjmp .L4
 162               	.L3:
 125:/Users/atakane/Documents/Electronics/IoClock/IoClock/lcd.c ****     } else {         /* write instruction (RS=0, RW=0) */
 126:/Users/atakane/Documents/Electronics/IoClock/IoClock/lcd.c ****        lcd_rs_low();
 164               	.LM7:
 165 0020 4198      		cbi 0x8,1
 166               	.L4:
 127:/Users/atakane/Documents/Electronics/IoClock/IoClock/lcd.c ****     }
 128:/Users/atakane/Documents/Electronics/IoClock/IoClock/lcd.c ****     lcd_rw_low();    /* RW=0  write mode      */
 168               	.LM8:
 169 0022 4098      		cbi 0x8,0
 129:/Users/atakane/Documents/Electronics/IoClock/IoClock/lcd.c **** 
 130:/Users/atakane/Documents/Electronics/IoClock/IoClock/lcd.c ****     if ( ( &LCD_DATA0_PORT == &LCD_DATA1_PORT) && ( &LCD_DATA1_PORT == &LCD_DATA2_PORT ) && ( &LCD_
 131:/Users/atakane/Documents/Electronics/IoClock/IoClock/lcd.c ****       && (LCD_DATA0_PIN == 0) && (LCD_DATA1_PIN == 1) && (LCD_DATA2_PIN == 2) && (LCD_DATA3_PIN == 
 132:/Users/atakane/Documents/Electronics/IoClock/IoClock/lcd.c ****     {
 133:/Users/atakane/Documents/Electronics/IoClock/IoClock/lcd.c ****         /* configure data pins as output */
 134:/Users/atakane/Documents/Electronics/IoClock/IoClock/lcd.c ****         DDR(LCD_DATA0_PORT) |= 0x0F;
 135:/Users/atakane/Documents/Electronics/IoClock/IoClock/lcd.c **** 
 136:/Users/atakane/Documents/Electronics/IoClock/IoClock/lcd.c ****         /* output high nibble first */
 137:/Users/atakane/Documents/Electronics/IoClock/IoClock/lcd.c ****         dataBits = LCD_DATA0_PORT & 0xF0;
 138:/Users/atakane/Documents/Electronics/IoClock/IoClock/lcd.c ****         LCD_DATA0_PORT = dataBits |((data>>4)&0x0F);
 139:/Users/atakane/Documents/Electronics/IoClock/IoClock/lcd.c ****         lcd_e_toggle();
 140:/Users/atakane/Documents/Electronics/IoClock/IoClock/lcd.c **** 
 141:/Users/atakane/Documents/Electronics/IoClock/IoClock/lcd.c ****         /* output low nibble */
 142:/Users/atakane/Documents/Electronics/IoClock/IoClock/lcd.c ****         LCD_DATA0_PORT = dataBits | (data&0x0F);
 143:/Users/atakane/Documents/Electronics/IoClock/IoClock/lcd.c ****         lcd_e_toggle();
 144:/Users/atakane/Documents/Electronics/IoClock/IoClock/lcd.c **** 
 145:/Users/atakane/Documents/Electronics/IoClock/IoClock/lcd.c ****         /* all data pins high (inactive) */
 146:/Users/atakane/Documents/Electronics/IoClock/IoClock/lcd.c ****         LCD_DATA0_PORT = dataBits | 0x0F;
 147:/Users/atakane/Documents/Electronics/IoClock/IoClock/lcd.c ****     }
 148:/Users/atakane/Documents/Electronics/IoClock/IoClock/lcd.c ****     else
 149:/Users/atakane/Documents/Electronics/IoClock/IoClock/lcd.c ****     {
 150:/Users/atakane/Documents/Electronics/IoClock/IoClock/lcd.c ****         /* configure data pins as output */
 151:/Users/atakane/Documents/Electronics/IoClock/IoClock/lcd.c ****         DDR(LCD_DATA0_PORT) |= _BV(LCD_DATA0_PIN);
 171               	.LM9:
 172 0024 249A      		sbi 0x4,4
 152:/Users/atakane/Documents/Electronics/IoClock/IoClock/lcd.c ****         DDR(LCD_DATA1_PORT) |= _BV(LCD_DATA1_PIN);
 174               	.LM10:
 175 0026 239A      		sbi 0x4,3
 153:/Users/atakane/Documents/Electronics/IoClock/IoClock/lcd.c ****         DDR(LCD_DATA2_PORT) |= _BV(LCD_DATA2_PIN);
 177               	.LM11:
 178 0028 229A      		sbi 0x4,2
 154:/Users/atakane/Documents/Electronics/IoClock/IoClock/lcd.c ****         DDR(LCD_DATA3_PORT) |= _BV(LCD_DATA3_PIN);
 180               	.LM12:
 181 002a 219A      		sbi 0x4,1
 155:/Users/atakane/Documents/Electronics/IoClock/IoClock/lcd.c ****         
 156:/Users/atakane/Documents/Electronics/IoClock/IoClock/lcd.c ****         /* output high nibble first */
 157:/Users/atakane/Documents/Electronics/IoClock/IoClock/lcd.c ****         LCD_DATA3_PORT &= ~_BV(LCD_DATA3_PIN);
 183               	.LM13:
 184 002c 2998      		cbi 0x5,1
 158:/Users/atakane/Documents/Electronics/IoClock/IoClock/lcd.c ****         LCD_DATA2_PORT &= ~_BV(LCD_DATA2_PIN);
 186               	.LM14:
 187 002e 2A98      		cbi 0x5,2
 159:/Users/atakane/Documents/Electronics/IoClock/IoClock/lcd.c ****         LCD_DATA1_PORT &= ~_BV(LCD_DATA1_PIN);
 189               	.LM15:
 190 0030 2B98      		cbi 0x5,3
 160:/Users/atakane/Documents/Electronics/IoClock/IoClock/lcd.c ****         LCD_DATA0_PORT &= ~_BV(LCD_DATA0_PIN);
 192               	.LM16:
 193 0032 2C98      		cbi 0x5,4
 161:/Users/atakane/Documents/Electronics/IoClock/IoClock/lcd.c ****     	if(data & 0x80) LCD_DATA3_PORT |= _BV(LCD_DATA3_PIN);
 195               	.LM17:
 196 0034 87FD      		sbrc r24,7
 198               	.LM18:
 199 0036 299A      		sbi 0x5,1
 200               	.L5:
 162:/Users/atakane/Documents/Electronics/IoClock/IoClock/lcd.c ****     	if(data & 0x40) LCD_DATA2_PORT |= _BV(LCD_DATA2_PIN);
 202               	.LM19:
 203 0038 86FD      		sbrc r24,6
 205               	.LM20:
 206 003a 2A9A      		sbi 0x5,2
 207               	.L6:
 163:/Users/atakane/Documents/Electronics/IoClock/IoClock/lcd.c ****     	if(data & 0x20) LCD_DATA1_PORT |= _BV(LCD_DATA1_PIN);
 209               	.LM21:
 210 003c 85FD      		sbrc r24,5
 212               	.LM22:
 213 003e 2B9A      		sbi 0x5,3
 214               	.L7:
 164:/Users/atakane/Documents/Electronics/IoClock/IoClock/lcd.c ****     	if(data & 0x10) LCD_DATA0_PORT |= _BV(LCD_DATA0_PIN);   
 216               	.LM23:
 217 0040 84FD      		sbrc r24,4
 219               	.LM24:
 220 0042 2C9A      		sbi 0x5,4
 221               	.L8:
 165:/Users/atakane/Documents/Electronics/IoClock/IoClock/lcd.c ****         lcd_e_toggle();
 223               	.LM25:
 224 0044 8983      		std Y+1,r24
 225 0046 0E94 0000 		call toggle_e
 166:/Users/atakane/Documents/Electronics/IoClock/IoClock/lcd.c ****         
 167:/Users/atakane/Documents/Electronics/IoClock/IoClock/lcd.c ****         /* output low nibble */
 168:/Users/atakane/Documents/Electronics/IoClock/IoClock/lcd.c ****         LCD_DATA3_PORT &= ~_BV(LCD_DATA3_PIN);
 227               	.LM26:
 228 004a 2998      		cbi 0x5,1
 169:/Users/atakane/Documents/Electronics/IoClock/IoClock/lcd.c ****         LCD_DATA2_PORT &= ~_BV(LCD_DATA2_PIN);
 230               	.LM27:
 231 004c 2A98      		cbi 0x5,2
 170:/Users/atakane/Documents/Electronics/IoClock/IoClock/lcd.c ****         LCD_DATA1_PORT &= ~_BV(LCD_DATA1_PIN);
 233               	.LM28:
 234 004e 2B98      		cbi 0x5,3
 171:/Users/atakane/Documents/Electronics/IoClock/IoClock/lcd.c ****         LCD_DATA0_PORT &= ~_BV(LCD_DATA0_PIN);
 236               	.LM29:
 237 0050 2C98      		cbi 0x5,4
 172:/Users/atakane/Documents/Electronics/IoClock/IoClock/lcd.c ****     	if(data & 0x08) LCD_DATA3_PORT |= _BV(LCD_DATA3_PIN);
 239               	.LM30:
 240 0052 8981      		ldd r24,Y+1
 241 0054 83FD      		sbrc r24,3
 243               	.LM31:
 244 0056 299A      		sbi 0x5,1
 245               	.L9:
 173:/Users/atakane/Documents/Electronics/IoClock/IoClock/lcd.c ****     	if(data & 0x04) LCD_DATA2_PORT |= _BV(LCD_DATA2_PIN);
 247               	.LM32:
 248 0058 82FD      		sbrc r24,2
 250               	.LM33:
 251 005a 2A9A      		sbi 0x5,2
 252               	.L10:
 174:/Users/atakane/Documents/Electronics/IoClock/IoClock/lcd.c ****     	if(data & 0x02) LCD_DATA1_PORT |= _BV(LCD_DATA1_PIN);
 254               	.LM34:
 255 005c 81FD      		sbrc r24,1
 257               	.LM35:
 258 005e 2B9A      		sbi 0x5,3
 259               	.L11:
 175:/Users/atakane/Documents/Electronics/IoClock/IoClock/lcd.c ****     	if(data & 0x01) LCD_DATA0_PORT |= _BV(LCD_DATA0_PIN);
 261               	.LM36:
 262 0060 80FD      		sbrc r24,0
 264               	.LM37:
 265 0062 2C9A      		sbi 0x5,4
 266               	.L12:
 176:/Users/atakane/Documents/Electronics/IoClock/IoClock/lcd.c ****         lcd_e_toggle();        
 268               	.LM38:
 269 0064 0E94 0000 		call toggle_e
 177:/Users/atakane/Documents/Electronics/IoClock/IoClock/lcd.c ****         
 178:/Users/atakane/Documents/Electronics/IoClock/IoClock/lcd.c ****         /* all data pins high (inactive) */
 179:/Users/atakane/Documents/Electronics/IoClock/IoClock/lcd.c ****         LCD_DATA0_PORT |= _BV(LCD_DATA0_PIN);
 271               	.LM39:
 272 0068 2C9A      		sbi 0x5,4
 180:/Users/atakane/Documents/Electronics/IoClock/IoClock/lcd.c ****         LCD_DATA1_PORT |= _BV(LCD_DATA1_PIN);
 274               	.LM40:
 275 006a 2B9A      		sbi 0x5,3
 181:/Users/atakane/Documents/Electronics/IoClock/IoClock/lcd.c ****         LCD_DATA2_PORT |= _BV(LCD_DATA2_PIN);
 277               	.LM41:
 278 006c 2A9A      		sbi 0x5,2
 182:/Users/atakane/Documents/Electronics/IoClock/IoClock/lcd.c ****         LCD_DATA3_PORT |= _BV(LCD_DATA3_PIN);
 280               	.LM42:
 281 006e 299A      		sbi 0x5,1
 282               	/* epilogue start */
 183:/Users/atakane/Documents/Electronics/IoClock/IoClock/lcd.c ****     }
 184:/Users/atakane/Documents/Electronics/IoClock/IoClock/lcd.c **** }
 284               	.LM43:
 285 0070 0F90      		pop __tmp_reg__
 286 0072 DF91      		pop r29
 287 0074 CF91      		pop r28
 288 0076 0895      		ret
 290               	.Lscope2:
 293               	lcd_read.constprop.0:
 185:/Users/atakane/Documents/Electronics/IoClock/IoClock/lcd.c **** #else
 186:/Users/atakane/Documents/Electronics/IoClock/IoClock/lcd.c **** #define lcd_write(d,rs) if (rs) *(volatile uint8_t*)(LCD_IO_DATA) = d; else *(volatile uint8_t*)(LC
 187:/Users/atakane/Documents/Electronics/IoClock/IoClock/lcd.c **** /* rs==0 -> write instruction to LCD_IO_FUNCTION */
 188:/Users/atakane/Documents/Electronics/IoClock/IoClock/lcd.c **** /* rs==1 -> write data to LCD_IO_DATA */
 189:/Users/atakane/Documents/Electronics/IoClock/IoClock/lcd.c **** #endif
 190:/Users/atakane/Documents/Electronics/IoClock/IoClock/lcd.c **** 
 191:/Users/atakane/Documents/Electronics/IoClock/IoClock/lcd.c **** 
 192:/Users/atakane/Documents/Electronics/IoClock/IoClock/lcd.c **** /*************************************************************************
 193:/Users/atakane/Documents/Electronics/IoClock/IoClock/lcd.c **** Low-level function to read byte from LCD controller
 194:/Users/atakane/Documents/Electronics/IoClock/IoClock/lcd.c **** Input:    rs     1: read data    
 195:/Users/atakane/Documents/Electronics/IoClock/IoClock/lcd.c ****                  0: read busy flag / address counter
 196:/Users/atakane/Documents/Electronics/IoClock/IoClock/lcd.c **** Returns:  byte read from LCD controller
 197:/Users/atakane/Documents/Electronics/IoClock/IoClock/lcd.c **** *************************************************************************/
 198:/Users/atakane/Documents/Electronics/IoClock/IoClock/lcd.c **** #if LCD_IO_MODE
 199:/Users/atakane/Documents/Electronics/IoClock/IoClock/lcd.c **** static uint8_t lcd_read(uint8_t rs) 
 295               	.LM44:
 296               	.LFBB3:
 297               	/* prologue: function */
 298               	/* frame size = 0 */
 299               	/* stack size = 0 */
 300               	.L__stack_usage = 0
 200:/Users/atakane/Documents/Electronics/IoClock/IoClock/lcd.c **** {
 201:/Users/atakane/Documents/Electronics/IoClock/IoClock/lcd.c ****     uint8_t data;
 202:/Users/atakane/Documents/Electronics/IoClock/IoClock/lcd.c ****     
 203:/Users/atakane/Documents/Electronics/IoClock/IoClock/lcd.c ****     
 204:/Users/atakane/Documents/Electronics/IoClock/IoClock/lcd.c ****     if (rs)
 205:/Users/atakane/Documents/Electronics/IoClock/IoClock/lcd.c ****         lcd_rs_high();                       /* RS=1: read data      */
 206:/Users/atakane/Documents/Electronics/IoClock/IoClock/lcd.c ****     else
 207:/Users/atakane/Documents/Electronics/IoClock/IoClock/lcd.c ****         lcd_rs_low();                        /* RS=0: read busy flag */
 302               	.LM45:
 303 0078 4198      		cbi 0x8,1
 208:/Users/atakane/Documents/Electronics/IoClock/IoClock/lcd.c ****     lcd_rw_high();                           /* RW=1  read mode      */
 305               	.LM46:
 306 007a 409A      		sbi 0x8,0
 209:/Users/atakane/Documents/Electronics/IoClock/IoClock/lcd.c ****     
 210:/Users/atakane/Documents/Electronics/IoClock/IoClock/lcd.c ****     if ( ( &LCD_DATA0_PORT == &LCD_DATA1_PORT) && ( &LCD_DATA1_PORT == &LCD_DATA2_PORT ) && ( &LCD_
 211:/Users/atakane/Documents/Electronics/IoClock/IoClock/lcd.c ****       && ( LCD_DATA0_PIN == 0 )&& (LCD_DATA1_PIN == 1) && (LCD_DATA2_PIN == 2) && (LCD_DATA3_PIN ==
 212:/Users/atakane/Documents/Electronics/IoClock/IoClock/lcd.c ****     {
 213:/Users/atakane/Documents/Electronics/IoClock/IoClock/lcd.c ****         DDR(LCD_DATA0_PORT) &= 0xF0;         /* configure data pins as input */
 214:/Users/atakane/Documents/Electronics/IoClock/IoClock/lcd.c ****         
 215:/Users/atakane/Documents/Electronics/IoClock/IoClock/lcd.c ****         lcd_e_high();
 216:/Users/atakane/Documents/Electronics/IoClock/IoClock/lcd.c ****         lcd_e_delay();        
 217:/Users/atakane/Documents/Electronics/IoClock/IoClock/lcd.c ****         data = PIN(LCD_DATA0_PORT) << 4;     /* read high nibble first */
 218:/Users/atakane/Documents/Electronics/IoClock/IoClock/lcd.c ****         lcd_e_low();
 219:/Users/atakane/Documents/Electronics/IoClock/IoClock/lcd.c ****         
 220:/Users/atakane/Documents/Electronics/IoClock/IoClock/lcd.c ****         lcd_e_delay();                       /* Enable 500ns low       */
 221:/Users/atakane/Documents/Electronics/IoClock/IoClock/lcd.c ****         
 222:/Users/atakane/Documents/Electronics/IoClock/IoClock/lcd.c ****         lcd_e_high();
 223:/Users/atakane/Documents/Electronics/IoClock/IoClock/lcd.c ****         lcd_e_delay();
 224:/Users/atakane/Documents/Electronics/IoClock/IoClock/lcd.c ****         data |= PIN(LCD_DATA0_PORT)&0x0F;    /* read low nibble        */
 225:/Users/atakane/Documents/Electronics/IoClock/IoClock/lcd.c ****         lcd_e_low();
 226:/Users/atakane/Documents/Electronics/IoClock/IoClock/lcd.c ****     }
 227:/Users/atakane/Documents/Electronics/IoClock/IoClock/lcd.c ****     else
 228:/Users/atakane/Documents/Electronics/IoClock/IoClock/lcd.c ****     {
 229:/Users/atakane/Documents/Electronics/IoClock/IoClock/lcd.c ****         /* configure data pins as input */
 230:/Users/atakane/Documents/Electronics/IoClock/IoClock/lcd.c ****         DDR(LCD_DATA0_PORT) &= ~_BV(LCD_DATA0_PIN);
 308               	.LM47:
 309 007c 2498      		cbi 0x4,4
 231:/Users/atakane/Documents/Electronics/IoClock/IoClock/lcd.c ****         DDR(LCD_DATA1_PORT) &= ~_BV(LCD_DATA1_PIN);
 311               	.LM48:
 312 007e 2398      		cbi 0x4,3
 232:/Users/atakane/Documents/Electronics/IoClock/IoClock/lcd.c ****         DDR(LCD_DATA2_PORT) &= ~_BV(LCD_DATA2_PIN);
 314               	.LM49:
 315 0080 2298      		cbi 0x4,2
 233:/Users/atakane/Documents/Electronics/IoClock/IoClock/lcd.c ****         DDR(LCD_DATA3_PORT) &= ~_BV(LCD_DATA3_PIN);
 317               	.LM50:
 318 0082 2198      		cbi 0x4,1
 234:/Users/atakane/Documents/Electronics/IoClock/IoClock/lcd.c ****                 
 235:/Users/atakane/Documents/Electronics/IoClock/IoClock/lcd.c ****         /* read high nibble first */
 236:/Users/atakane/Documents/Electronics/IoClock/IoClock/lcd.c ****         lcd_e_high();
 320               	.LM51:
 321 0084 2D9A      		sbi 0x5,5
 322               	.LBB30:
 323               	.LBB31:
 325               	.Ltext3:
 327               	.LM52:
 328 0086 82E0      		ldi r24,lo8(2)
 329 0088 8A95      		1: dec r24
 330 008a 01F4      		brne 1b
 331 008c 00C0      		rjmp .
 332               	.LBE31:
 333               	.LBE30:
 335               	.Ltext4:
 237:/Users/atakane/Documents/Electronics/IoClock/IoClock/lcd.c ****         lcd_e_delay();        
 238:/Users/atakane/Documents/Electronics/IoClock/IoClock/lcd.c ****         data = 0;
 239:/Users/atakane/Documents/Electronics/IoClock/IoClock/lcd.c ****         if ( PIN(LCD_DATA0_PORT) & _BV(LCD_DATA0_PIN) ) data |= 0x10;
 337               	.LM53:
 338 008e 1C99      		sbic 0x3,4
 339 0090 00C0      		rjmp .L44
 238:/Users/atakane/Documents/Electronics/IoClock/IoClock/lcd.c ****         data = 0;
 341               	.LM54:
 342 0092 80E0      		ldi r24,0
 343 0094 00C0      		rjmp .L36
 344               	.L44:
 346               	.LM55:
 347 0096 80E1      		ldi r24,lo8(16)
 348               	.L36:
 240:/Users/atakane/Documents/Electronics/IoClock/IoClock/lcd.c ****         if ( PIN(LCD_DATA1_PORT) & _BV(LCD_DATA1_PIN) ) data |= 0x20;
 350               	.LM56:
 351 0098 1B99      		sbic 0x3,3
 352 009a 8062      		ori r24,lo8(32)
 353               	.L37:
 241:/Users/atakane/Documents/Electronics/IoClock/IoClock/lcd.c ****         if ( PIN(LCD_DATA2_PORT) & _BV(LCD_DATA2_PIN) ) data |= 0x40;
 355               	.LM57:
 356 009c 1A99      		sbic 0x3,2
 357 009e 8064      		ori r24,lo8(64)
 358               	.L38:
 242:/Users/atakane/Documents/Electronics/IoClock/IoClock/lcd.c ****         if ( PIN(LCD_DATA3_PORT) & _BV(LCD_DATA3_PIN) ) data |= 0x80;
 360               	.LM58:
 361 00a0 1999      		sbic 0x3,1
 362 00a2 8068      		ori r24,lo8(-128)
 363               	.L39:
 243:/Users/atakane/Documents/Electronics/IoClock/IoClock/lcd.c ****         lcd_e_low();
 365               	.LM59:
 366 00a4 2D98      		cbi 0x5,5
 367               	.LBB32:
 368               	.LBB33:
 370               	.Ltext5:
 372               	.LM60:
 373 00a6 92E0      		ldi r25,lo8(2)
 374 00a8 9A95      		1: dec r25
 375 00aa 01F4      		brne 1b
 376 00ac 00C0      		rjmp .
 377               	.LBE33:
 378               	.LBE32:
 380               	.Ltext6:
 244:/Users/atakane/Documents/Electronics/IoClock/IoClock/lcd.c **** 
 245:/Users/atakane/Documents/Electronics/IoClock/IoClock/lcd.c ****         lcd_e_delay();                       /* Enable 500ns low       */
 246:/Users/atakane/Documents/Electronics/IoClock/IoClock/lcd.c ****     
 247:/Users/atakane/Documents/Electronics/IoClock/IoClock/lcd.c ****         /* read low nibble */    
 248:/Users/atakane/Documents/Electronics/IoClock/IoClock/lcd.c ****         lcd_e_high();
 382               	.LM61:
 383 00ae 2D9A      		sbi 0x5,5
 384               	.LBB34:
 385               	.LBB35:
 387               	.Ltext7:
 389               	.LM62:
 390 00b0 92E0      		ldi r25,lo8(2)
 391 00b2 9A95      		1: dec r25
 392 00b4 01F4      		brne 1b
 393 00b6 00C0      		rjmp .
 394               	.LBE35:
 395               	.LBE34:
 397               	.Ltext8:
 249:/Users/atakane/Documents/Electronics/IoClock/IoClock/lcd.c ****         lcd_e_delay();
 250:/Users/atakane/Documents/Electronics/IoClock/IoClock/lcd.c ****         if ( PIN(LCD_DATA0_PORT) & _BV(LCD_DATA0_PIN) ) data |= 0x01;
 399               	.LM63:
 400 00b8 1C99      		sbic 0x3,4
 401 00ba 8160      		ori r24,lo8(1)
 402               	.L40:
 251:/Users/atakane/Documents/Electronics/IoClock/IoClock/lcd.c ****         if ( PIN(LCD_DATA1_PORT) & _BV(LCD_DATA1_PIN) ) data |= 0x02;
 404               	.LM64:
 405 00bc 1B99      		sbic 0x3,3
 406 00be 8260      		ori r24,lo8(2)
 407               	.L41:
 252:/Users/atakane/Documents/Electronics/IoClock/IoClock/lcd.c ****         if ( PIN(LCD_DATA2_PORT) & _BV(LCD_DATA2_PIN) ) data |= 0x04;
 409               	.LM65:
 410 00c0 1A99      		sbic 0x3,2
 411 00c2 8460      		ori r24,lo8(4)
 412               	.L42:
 253:/Users/atakane/Documents/Electronics/IoClock/IoClock/lcd.c ****         if ( PIN(LCD_DATA3_PORT) & _BV(LCD_DATA3_PIN) ) data |= 0x08;        
 414               	.LM66:
 415 00c4 1999      		sbic 0x3,1
 416 00c6 8860      		ori r24,lo8(8)
 417               	.L43:
 254:/Users/atakane/Documents/Electronics/IoClock/IoClock/lcd.c ****         lcd_e_low();
 419               	.LM67:
 420 00c8 2D98      		cbi 0x5,5
 255:/Users/atakane/Documents/Electronics/IoClock/IoClock/lcd.c ****     }
 256:/Users/atakane/Documents/Electronics/IoClock/IoClock/lcd.c ****     return data;
 257:/Users/atakane/Documents/Electronics/IoClock/IoClock/lcd.c **** }
 422               	.LM68:
 423 00ca 0895      		ret
 428               	.Lscope3:
 431               	lcd_waitbusy:
 258:/Users/atakane/Documents/Electronics/IoClock/IoClock/lcd.c **** #else
 259:/Users/atakane/Documents/Electronics/IoClock/IoClock/lcd.c **** #define lcd_read(rs) (rs) ? *(volatile uint8_t*)(LCD_IO_DATA+LCD_IO_READ) : *(volatile uint8_t*)(LC
 260:/Users/atakane/Documents/Electronics/IoClock/IoClock/lcd.c **** /* rs==0 -> read instruction from LCD_IO_FUNCTION */
 261:/Users/atakane/Documents/Electronics/IoClock/IoClock/lcd.c **** /* rs==1 -> read data from LCD_IO_DATA */
 262:/Users/atakane/Documents/Electronics/IoClock/IoClock/lcd.c **** #endif
 263:/Users/atakane/Documents/Electronics/IoClock/IoClock/lcd.c **** 
 264:/Users/atakane/Documents/Electronics/IoClock/IoClock/lcd.c **** 
 265:/Users/atakane/Documents/Electronics/IoClock/IoClock/lcd.c **** /*************************************************************************
 266:/Users/atakane/Documents/Electronics/IoClock/IoClock/lcd.c **** loops while lcd is busy, returns address counter
 267:/Users/atakane/Documents/Electronics/IoClock/IoClock/lcd.c **** *************************************************************************/
 268:/Users/atakane/Documents/Electronics/IoClock/IoClock/lcd.c **** static uint8_t lcd_waitbusy(void)
 269:/Users/atakane/Documents/Electronics/IoClock/IoClock/lcd.c **** 
 270:/Users/atakane/Documents/Electronics/IoClock/IoClock/lcd.c **** {
 433               	.LM69:
 434               	.LFBB4:
 435               	/* prologue: function */
 436               	/* frame size = 0 */
 437               	/* stack size = 0 */
 438               	.L__stack_usage = 0
 439               	.L68:
 271:/Users/atakane/Documents/Electronics/IoClock/IoClock/lcd.c ****     register uint8_t c;
 272:/Users/atakane/Documents/Electronics/IoClock/IoClock/lcd.c ****     
 273:/Users/atakane/Documents/Electronics/IoClock/IoClock/lcd.c ****     /* wait until busy flag is cleared */
 274:/Users/atakane/Documents/Electronics/IoClock/IoClock/lcd.c ****     while ( (c=lcd_read(0)) & (1<<LCD_BUSY)) {}
 441               	.LM70:
 442 00cc 0E94 0000 		call lcd_read.constprop.0
 443 00d0 87FD      		sbrc r24,7
 444 00d2 00C0      		rjmp .L68
 445               	.LBB36:
 446               	.LBB37:
 448               	.Ltext9:
 450               	.LM71:
 451 00d4 8AE0      		ldi r24,lo8(10)
 452 00d6 8A95      		1: dec r24
 453 00d8 01F4      		brne 1b
 454 00da 00C0      		rjmp .
 455               	.LBE37:
 456               	.LBE36:
 458               	.Ltext10:
 275:/Users/atakane/Documents/Electronics/IoClock/IoClock/lcd.c ****     
 276:/Users/atakane/Documents/Electronics/IoClock/IoClock/lcd.c ****     /* the address counter is updated 4us after the busy flag is cleared */
 277:/Users/atakane/Documents/Electronics/IoClock/IoClock/lcd.c ****     delay(LCD_DELAY_BUSY_FLAG);
 278:/Users/atakane/Documents/Electronics/IoClock/IoClock/lcd.c **** 
 279:/Users/atakane/Documents/Electronics/IoClock/IoClock/lcd.c ****     /* now read the address counter */
 280:/Users/atakane/Documents/Electronics/IoClock/IoClock/lcd.c ****     return (lcd_read(0));  // return address counter
 460               	.LM72:
 461 00dc 0C94 0000 		jmp lcd_read.constprop.0
 463               	.Lscope4:
 466               	.global	lcd_command
 468               	lcd_command:
 281:/Users/atakane/Documents/Electronics/IoClock/IoClock/lcd.c ****     
 282:/Users/atakane/Documents/Electronics/IoClock/IoClock/lcd.c **** }/* lcd_waitbusy */
 283:/Users/atakane/Documents/Electronics/IoClock/IoClock/lcd.c **** 
 284:/Users/atakane/Documents/Electronics/IoClock/IoClock/lcd.c **** 
 285:/Users/atakane/Documents/Electronics/IoClock/IoClock/lcd.c **** /*************************************************************************
 286:/Users/atakane/Documents/Electronics/IoClock/IoClock/lcd.c **** Move cursor to the start of next line or to the first line if the cursor 
 287:/Users/atakane/Documents/Electronics/IoClock/IoClock/lcd.c **** is already on the last line.
 288:/Users/atakane/Documents/Electronics/IoClock/IoClock/lcd.c **** *************************************************************************/
 289:/Users/atakane/Documents/Electronics/IoClock/IoClock/lcd.c **** static inline void lcd_newline(uint8_t pos)
 290:/Users/atakane/Documents/Electronics/IoClock/IoClock/lcd.c **** {
 291:/Users/atakane/Documents/Electronics/IoClock/IoClock/lcd.c ****     register uint8_t addressCounter;
 292:/Users/atakane/Documents/Electronics/IoClock/IoClock/lcd.c **** 
 293:/Users/atakane/Documents/Electronics/IoClock/IoClock/lcd.c **** 
 294:/Users/atakane/Documents/Electronics/IoClock/IoClock/lcd.c **** #if LCD_LINES==1
 295:/Users/atakane/Documents/Electronics/IoClock/IoClock/lcd.c ****     addressCounter = 0;
 296:/Users/atakane/Documents/Electronics/IoClock/IoClock/lcd.c **** #endif
 297:/Users/atakane/Documents/Electronics/IoClock/IoClock/lcd.c **** #if LCD_LINES==2
 298:/Users/atakane/Documents/Electronics/IoClock/IoClock/lcd.c ****     if ( pos < (LCD_START_LINE2) )
 299:/Users/atakane/Documents/Electronics/IoClock/IoClock/lcd.c ****         addressCounter = LCD_START_LINE2;
 300:/Users/atakane/Documents/Electronics/IoClock/IoClock/lcd.c ****     else
 301:/Users/atakane/Documents/Electronics/IoClock/IoClock/lcd.c ****         addressCounter = LCD_START_LINE1;
 302:/Users/atakane/Documents/Electronics/IoClock/IoClock/lcd.c **** #endif
 303:/Users/atakane/Documents/Electronics/IoClock/IoClock/lcd.c **** #if LCD_LINES==4
 304:/Users/atakane/Documents/Electronics/IoClock/IoClock/lcd.c **** #if KS0073_4LINES_MODE
 305:/Users/atakane/Documents/Electronics/IoClock/IoClock/lcd.c ****     if ( pos < LCD_START_LINE2 )
 306:/Users/atakane/Documents/Electronics/IoClock/IoClock/lcd.c ****         addressCounter = LCD_START_LINE2;
 307:/Users/atakane/Documents/Electronics/IoClock/IoClock/lcd.c ****     else if ( (pos >= LCD_START_LINE2) && (pos < LCD_START_LINE3) )
 308:/Users/atakane/Documents/Electronics/IoClock/IoClock/lcd.c ****         addressCounter = LCD_START_LINE3;
 309:/Users/atakane/Documents/Electronics/IoClock/IoClock/lcd.c ****     else if ( (pos >= LCD_START_LINE3) && (pos < LCD_START_LINE4) )
 310:/Users/atakane/Documents/Electronics/IoClock/IoClock/lcd.c ****         addressCounter = LCD_START_LINE4;
 311:/Users/atakane/Documents/Electronics/IoClock/IoClock/lcd.c ****     else 
 312:/Users/atakane/Documents/Electronics/IoClock/IoClock/lcd.c ****         addressCounter = LCD_START_LINE1;
 313:/Users/atakane/Documents/Electronics/IoClock/IoClock/lcd.c **** #else
 314:/Users/atakane/Documents/Electronics/IoClock/IoClock/lcd.c ****     if ( pos < LCD_START_LINE3 )
 315:/Users/atakane/Documents/Electronics/IoClock/IoClock/lcd.c ****         addressCounter = LCD_START_LINE2;
 316:/Users/atakane/Documents/Electronics/IoClock/IoClock/lcd.c ****     else if ( (pos >= LCD_START_LINE2) && (pos < LCD_START_LINE4) )
 317:/Users/atakane/Documents/Electronics/IoClock/IoClock/lcd.c ****         addressCounter = LCD_START_LINE3;
 318:/Users/atakane/Documents/Electronics/IoClock/IoClock/lcd.c ****     else if ( (pos >= LCD_START_LINE3) && (pos < LCD_START_LINE2) )
 319:/Users/atakane/Documents/Electronics/IoClock/IoClock/lcd.c ****         addressCounter = LCD_START_LINE4;
 320:/Users/atakane/Documents/Electronics/IoClock/IoClock/lcd.c ****     else 
 321:/Users/atakane/Documents/Electronics/IoClock/IoClock/lcd.c ****         addressCounter = LCD_START_LINE1;
 322:/Users/atakane/Documents/Electronics/IoClock/IoClock/lcd.c **** #endif
 323:/Users/atakane/Documents/Electronics/IoClock/IoClock/lcd.c **** #endif
 324:/Users/atakane/Documents/Electronics/IoClock/IoClock/lcd.c ****     lcd_command((1<<LCD_DDRAM)+addressCounter);
 325:/Users/atakane/Documents/Electronics/IoClock/IoClock/lcd.c **** 
 326:/Users/atakane/Documents/Electronics/IoClock/IoClock/lcd.c **** }/* lcd_newline */
 327:/Users/atakane/Documents/Electronics/IoClock/IoClock/lcd.c **** 
 328:/Users/atakane/Documents/Electronics/IoClock/IoClock/lcd.c **** 
 329:/Users/atakane/Documents/Electronics/IoClock/IoClock/lcd.c **** /*
 330:/Users/atakane/Documents/Electronics/IoClock/IoClock/lcd.c **** ** PUBLIC FUNCTIONS 
 331:/Users/atakane/Documents/Electronics/IoClock/IoClock/lcd.c **** */
 332:/Users/atakane/Documents/Electronics/IoClock/IoClock/lcd.c **** 
 333:/Users/atakane/Documents/Electronics/IoClock/IoClock/lcd.c **** /*************************************************************************
 334:/Users/atakane/Documents/Electronics/IoClock/IoClock/lcd.c **** Send LCD controller instruction command
 335:/Users/atakane/Documents/Electronics/IoClock/IoClock/lcd.c **** Input:   instruction to send to LCD controller, see HD44780 data sheet
 336:/Users/atakane/Documents/Electronics/IoClock/IoClock/lcd.c **** Returns: none
 337:/Users/atakane/Documents/Electronics/IoClock/IoClock/lcd.c **** *************************************************************************/
 338:/Users/atakane/Documents/Electronics/IoClock/IoClock/lcd.c **** void lcd_command(uint8_t cmd)
 339:/Users/atakane/Documents/Electronics/IoClock/IoClock/lcd.c **** {
 470               	.LM73:
 471               	.LFBB5:
 472 00e0 CF93      		push r28
 473               	/* prologue: function */
 474               	/* frame size = 0 */
 475               	/* stack size = 1 */
 476               	.L__stack_usage = 1
 477 00e2 C82F      		mov r28,r24
 340:/Users/atakane/Documents/Electronics/IoClock/IoClock/lcd.c ****     lcd_waitbusy();
 479               	.LM74:
 480 00e4 0E94 0000 		call lcd_waitbusy
 341:/Users/atakane/Documents/Electronics/IoClock/IoClock/lcd.c ****     lcd_write(cmd,0);
 482               	.LM75:
 483 00e8 60E0      		ldi r22,0
 484 00ea 8C2F      		mov r24,r28
 485               	/* epilogue start */
 342:/Users/atakane/Documents/Electronics/IoClock/IoClock/lcd.c **** }
 487               	.LM76:
 488 00ec CF91      		pop r28
 341:/Users/atakane/Documents/Electronics/IoClock/IoClock/lcd.c ****     lcd_write(cmd,0);
 490               	.LM77:
 491 00ee 0C94 0000 		jmp lcd_write
 493               	.Lscope5:
 496               	.global	lcd_data
 498               	lcd_data:
 343:/Users/atakane/Documents/Electronics/IoClock/IoClock/lcd.c **** 
 344:/Users/atakane/Documents/Electronics/IoClock/IoClock/lcd.c **** 
 345:/Users/atakane/Documents/Electronics/IoClock/IoClock/lcd.c **** /*************************************************************************
 346:/Users/atakane/Documents/Electronics/IoClock/IoClock/lcd.c **** Send data byte to LCD controller 
 347:/Users/atakane/Documents/Electronics/IoClock/IoClock/lcd.c **** Input:   data to send to LCD controller, see HD44780 data sheet
 348:/Users/atakane/Documents/Electronics/IoClock/IoClock/lcd.c **** Returns: none
 349:/Users/atakane/Documents/Electronics/IoClock/IoClock/lcd.c **** *************************************************************************/
 350:/Users/atakane/Documents/Electronics/IoClock/IoClock/lcd.c **** void lcd_data(uint8_t data)
 351:/Users/atakane/Documents/Electronics/IoClock/IoClock/lcd.c **** {
 500               	.LM78:
 501               	.LFBB6:
 502 00f2 CF93      		push r28
 503               	/* prologue: function */
 504               	/* frame size = 0 */
 505               	/* stack size = 1 */
 506               	.L__stack_usage = 1
 507 00f4 C82F      		mov r28,r24
 352:/Users/atakane/Documents/Electronics/IoClock/IoClock/lcd.c ****     lcd_waitbusy();
 509               	.LM79:
 510 00f6 0E94 0000 		call lcd_waitbusy
 353:/Users/atakane/Documents/Electronics/IoClock/IoClock/lcd.c ****     lcd_write(data,1);
 512               	.LM80:
 513 00fa 61E0      		ldi r22,lo8(1)
 514 00fc 8C2F      		mov r24,r28
 515               	/* epilogue start */
 354:/Users/atakane/Documents/Electronics/IoClock/IoClock/lcd.c **** }
 517               	.LM81:
 518 00fe CF91      		pop r28
 353:/Users/atakane/Documents/Electronics/IoClock/IoClock/lcd.c ****     lcd_write(data,1);
 520               	.LM82:
 521 0100 0C94 0000 		jmp lcd_write
 523               	.Lscope6:
 527               	.global	lcd_gotoxy
 529               	lcd_gotoxy:
 355:/Users/atakane/Documents/Electronics/IoClock/IoClock/lcd.c **** 
 356:/Users/atakane/Documents/Electronics/IoClock/IoClock/lcd.c **** 
 357:/Users/atakane/Documents/Electronics/IoClock/IoClock/lcd.c **** 
 358:/Users/atakane/Documents/Electronics/IoClock/IoClock/lcd.c **** /*************************************************************************
 359:/Users/atakane/Documents/Electronics/IoClock/IoClock/lcd.c **** Set cursor to specified position
 360:/Users/atakane/Documents/Electronics/IoClock/IoClock/lcd.c **** Input:    x  horizontal position  (0: left most position)
 361:/Users/atakane/Documents/Electronics/IoClock/IoClock/lcd.c ****           y  vertical position    (0: first line)
 362:/Users/atakane/Documents/Electronics/IoClock/IoClock/lcd.c **** Returns:  none
 363:/Users/atakane/Documents/Electronics/IoClock/IoClock/lcd.c **** *************************************************************************/
 364:/Users/atakane/Documents/Electronics/IoClock/IoClock/lcd.c **** void lcd_gotoxy(uint8_t x, uint8_t y)
 365:/Users/atakane/Documents/Electronics/IoClock/IoClock/lcd.c **** {
 531               	.LM83:
 532               	.LFBB7:
 533               	/* prologue: function */
 534               	/* frame size = 0 */
 535               	/* stack size = 0 */
 536               	.L__stack_usage = 0
 366:/Users/atakane/Documents/Electronics/IoClock/IoClock/lcd.c **** #if LCD_LINES==1
 367:/Users/atakane/Documents/Electronics/IoClock/IoClock/lcd.c ****     lcd_command((1<<LCD_DDRAM)+LCD_START_LINE1+x);
 368:/Users/atakane/Documents/Electronics/IoClock/IoClock/lcd.c **** #endif
 369:/Users/atakane/Documents/Electronics/IoClock/IoClock/lcd.c **** #if LCD_LINES==2
 370:/Users/atakane/Documents/Electronics/IoClock/IoClock/lcd.c ****     if ( y==0 ) 
 538               	.LM84:
 539 0104 6111      		cpse r22,__zero_reg__
 540 0106 00C0      		rjmp .L72
 371:/Users/atakane/Documents/Electronics/IoClock/IoClock/lcd.c ****         lcd_command((1<<LCD_DDRAM)+LCD_START_LINE1+x);
 542               	.LM85:
 543 0108 8058      		subi r24,lo8(-(-128))
 544 010a 00C0      		rjmp .L73
 545               	.L72:
 372:/Users/atakane/Documents/Electronics/IoClock/IoClock/lcd.c ****     else
 373:/Users/atakane/Documents/Electronics/IoClock/IoClock/lcd.c ****         lcd_command((1<<LCD_DDRAM)+LCD_START_LINE2+x);
 547               	.LM86:
 548 010c 8054      		subi r24,lo8(-(-64))
 549               	.L73:
 550 010e 0C94 0000 		jmp lcd_command
 552               	.Lscope7:
 554               	.global	lcd_getxy
 556               	lcd_getxy:
 374:/Users/atakane/Documents/Electronics/IoClock/IoClock/lcd.c **** #endif
 375:/Users/atakane/Documents/Electronics/IoClock/IoClock/lcd.c **** #if LCD_LINES==4
 376:/Users/atakane/Documents/Electronics/IoClock/IoClock/lcd.c ****     if ( y==0 )
 377:/Users/atakane/Documents/Electronics/IoClock/IoClock/lcd.c ****         lcd_command((1<<LCD_DDRAM)+LCD_START_LINE1+x);
 378:/Users/atakane/Documents/Electronics/IoClock/IoClock/lcd.c ****     else if ( y==1)
 379:/Users/atakane/Documents/Electronics/IoClock/IoClock/lcd.c ****         lcd_command((1<<LCD_DDRAM)+LCD_START_LINE2+x);
 380:/Users/atakane/Documents/Electronics/IoClock/IoClock/lcd.c ****     else if ( y==2)
 381:/Users/atakane/Documents/Electronics/IoClock/IoClock/lcd.c ****         lcd_command((1<<LCD_DDRAM)+LCD_START_LINE3+x);
 382:/Users/atakane/Documents/Electronics/IoClock/IoClock/lcd.c ****     else /* y==3 */
 383:/Users/atakane/Documents/Electronics/IoClock/IoClock/lcd.c ****         lcd_command((1<<LCD_DDRAM)+LCD_START_LINE4+x);
 384:/Users/atakane/Documents/Electronics/IoClock/IoClock/lcd.c **** #endif
 385:/Users/atakane/Documents/Electronics/IoClock/IoClock/lcd.c **** 
 386:/Users/atakane/Documents/Electronics/IoClock/IoClock/lcd.c **** }/* lcd_gotoxy */
 387:/Users/atakane/Documents/Electronics/IoClock/IoClock/lcd.c **** 
 388:/Users/atakane/Documents/Electronics/IoClock/IoClock/lcd.c **** 
 389:/Users/atakane/Documents/Electronics/IoClock/IoClock/lcd.c **** /*************************************************************************
 390:/Users/atakane/Documents/Electronics/IoClock/IoClock/lcd.c **** *************************************************************************/
 391:/Users/atakane/Documents/Electronics/IoClock/IoClock/lcd.c **** int lcd_getxy(void)
 392:/Users/atakane/Documents/Electronics/IoClock/IoClock/lcd.c **** {
 558               	.LM87:
 559               	.LFBB8:
 560               	/* prologue: function */
 561               	/* frame size = 0 */
 562               	/* stack size = 0 */
 563               	.L__stack_usage = 0
 393:/Users/atakane/Documents/Electronics/IoClock/IoClock/lcd.c ****     return lcd_waitbusy();
 565               	.LM88:
 566 0112 0E94 0000 		call lcd_waitbusy
 394:/Users/atakane/Documents/Electronics/IoClock/IoClock/lcd.c **** }
 568               	.LM89:
 569 0116 90E0      		ldi r25,0
 570 0118 0895      		ret
 572               	.Lscope8:
 574               	.global	lcd_clrscr
 576               	lcd_clrscr:
 395:/Users/atakane/Documents/Electronics/IoClock/IoClock/lcd.c **** 
 396:/Users/atakane/Documents/Electronics/IoClock/IoClock/lcd.c **** 
 397:/Users/atakane/Documents/Electronics/IoClock/IoClock/lcd.c **** /*************************************************************************
 398:/Users/atakane/Documents/Electronics/IoClock/IoClock/lcd.c **** Clear display and set cursor to home position
 399:/Users/atakane/Documents/Electronics/IoClock/IoClock/lcd.c **** *************************************************************************/
 400:/Users/atakane/Documents/Electronics/IoClock/IoClock/lcd.c **** void lcd_clrscr(void)
 401:/Users/atakane/Documents/Electronics/IoClock/IoClock/lcd.c **** {
 578               	.LM90:
 579               	.LFBB9:
 580               	/* prologue: function */
 581               	/* frame size = 0 */
 582               	/* stack size = 0 */
 583               	.L__stack_usage = 0
 402:/Users/atakane/Documents/Electronics/IoClock/IoClock/lcd.c ****     lcd_command(1<<LCD_CLR);
 585               	.LM91:
 586 011a 81E0      		ldi r24,lo8(1)
 587 011c 0C94 0000 		jmp lcd_command
 589               	.Lscope9:
 591               	.global	lcd_home
 593               	lcd_home:
 403:/Users/atakane/Documents/Electronics/IoClock/IoClock/lcd.c **** }
 404:/Users/atakane/Documents/Electronics/IoClock/IoClock/lcd.c **** 
 405:/Users/atakane/Documents/Electronics/IoClock/IoClock/lcd.c **** 
 406:/Users/atakane/Documents/Electronics/IoClock/IoClock/lcd.c **** /*************************************************************************
 407:/Users/atakane/Documents/Electronics/IoClock/IoClock/lcd.c **** Set cursor to home position
 408:/Users/atakane/Documents/Electronics/IoClock/IoClock/lcd.c **** *************************************************************************/
 409:/Users/atakane/Documents/Electronics/IoClock/IoClock/lcd.c **** void lcd_home(void)
 410:/Users/atakane/Documents/Electronics/IoClock/IoClock/lcd.c **** {
 595               	.LM92:
 596               	.LFBB10:
 597               	/* prologue: function */
 598               	/* frame size = 0 */
 599               	/* stack size = 0 */
 600               	.L__stack_usage = 0
 411:/Users/atakane/Documents/Electronics/IoClock/IoClock/lcd.c ****     lcd_command(1<<LCD_HOME);
 602               	.LM93:
 603 0120 82E0      		ldi r24,lo8(2)
 604 0122 0C94 0000 		jmp lcd_command
 606               	.Lscope10:
 609               	.global	lcd_putc
 611               	lcd_putc:
 412:/Users/atakane/Documents/Electronics/IoClock/IoClock/lcd.c **** }
 413:/Users/atakane/Documents/Electronics/IoClock/IoClock/lcd.c **** 
 414:/Users/atakane/Documents/Electronics/IoClock/IoClock/lcd.c **** 
 415:/Users/atakane/Documents/Electronics/IoClock/IoClock/lcd.c **** /*************************************************************************
 416:/Users/atakane/Documents/Electronics/IoClock/IoClock/lcd.c **** Display character at current cursor position 
 417:/Users/atakane/Documents/Electronics/IoClock/IoClock/lcd.c **** Input:    character to be displayed                                       
 418:/Users/atakane/Documents/Electronics/IoClock/IoClock/lcd.c **** Returns:  none
 419:/Users/atakane/Documents/Electronics/IoClock/IoClock/lcd.c **** *************************************************************************/
 420:/Users/atakane/Documents/Electronics/IoClock/IoClock/lcd.c **** void lcd_putc(char c)
 421:/Users/atakane/Documents/Electronics/IoClock/IoClock/lcd.c **** {
 613               	.LM94:
 614               	.LFBB11:
 615 0126 CF93      		push r28
 616               	/* prologue: function */
 617               	/* frame size = 0 */
 618               	/* stack size = 1 */
 619               	.L__stack_usage = 1
 620 0128 C82F      		mov r28,r24
 422:/Users/atakane/Documents/Electronics/IoClock/IoClock/lcd.c ****     uint8_t pos;
 423:/Users/atakane/Documents/Electronics/IoClock/IoClock/lcd.c **** 
 424:/Users/atakane/Documents/Electronics/IoClock/IoClock/lcd.c **** 
 425:/Users/atakane/Documents/Electronics/IoClock/IoClock/lcd.c ****     pos = lcd_waitbusy();   // read busy-flag and address counter
 622               	.LM95:
 623 012a 0E94 0000 		call lcd_waitbusy
 426:/Users/atakane/Documents/Electronics/IoClock/IoClock/lcd.c ****     if (c=='\n')
 625               	.LM96:
 626 012e CA30      		cpi r28,lo8(10)
 627 0130 01F4      		brne .L78
 628               	.LBB40:
 629               	.LBB41:
 298:/Users/atakane/Documents/Electronics/IoClock/IoClock/lcd.c ****     if ( pos < (LCD_START_LINE2) )
 631               	.LM97:
 632 0132 8034      		cpi r24,lo8(64)
 633 0134 00F4      		brsh .L80
 299:/Users/atakane/Documents/Electronics/IoClock/IoClock/lcd.c ****         addressCounter = LCD_START_LINE2;
 635               	.LM98:
 636 0136 80E4      		ldi r24,lo8(64)
 637 0138 00C0      		rjmp .L79
 638               	.L80:
 301:/Users/atakane/Documents/Electronics/IoClock/IoClock/lcd.c ****         addressCounter = LCD_START_LINE1;
 640               	.LM99:
 641 013a 80E0      		ldi r24,0
 642               	.L79:
 324:/Users/atakane/Documents/Electronics/IoClock/IoClock/lcd.c ****     lcd_command((1<<LCD_DDRAM)+addressCounter);
 644               	.LM100:
 645 013c 8058      		subi r24,lo8(-(-128))
 646               	/* epilogue start */
 647               	.LBE41:
 648               	.LBE40:
 427:/Users/atakane/Documents/Electronics/IoClock/IoClock/lcd.c ****     {
 428:/Users/atakane/Documents/Electronics/IoClock/IoClock/lcd.c ****         lcd_newline(pos);
 429:/Users/atakane/Documents/Electronics/IoClock/IoClock/lcd.c ****     }
 430:/Users/atakane/Documents/Electronics/IoClock/IoClock/lcd.c ****     else
 431:/Users/atakane/Documents/Electronics/IoClock/IoClock/lcd.c ****     {
 432:/Users/atakane/Documents/Electronics/IoClock/IoClock/lcd.c **** #if LCD_WRAP_LINES==1
 433:/Users/atakane/Documents/Electronics/IoClock/IoClock/lcd.c **** #if LCD_LINES==1
 434:/Users/atakane/Documents/Electronics/IoClock/IoClock/lcd.c ****         if ( pos == LCD_START_LINE1+LCD_DISP_LENGTH ) {
 435:/Users/atakane/Documents/Electronics/IoClock/IoClock/lcd.c ****             lcd_write((1<<LCD_DDRAM)+LCD_START_LINE1,0);
 436:/Users/atakane/Documents/Electronics/IoClock/IoClock/lcd.c ****         }
 437:/Users/atakane/Documents/Electronics/IoClock/IoClock/lcd.c **** #elif LCD_LINES==2
 438:/Users/atakane/Documents/Electronics/IoClock/IoClock/lcd.c ****         if ( pos == LCD_START_LINE1+LCD_DISP_LENGTH ) {
 439:/Users/atakane/Documents/Electronics/IoClock/IoClock/lcd.c ****             lcd_write((1<<LCD_DDRAM)+LCD_START_LINE2,0);    
 440:/Users/atakane/Documents/Electronics/IoClock/IoClock/lcd.c ****         }else if ( pos == LCD_START_LINE2+LCD_DISP_LENGTH ){
 441:/Users/atakane/Documents/Electronics/IoClock/IoClock/lcd.c ****             lcd_write((1<<LCD_DDRAM)+LCD_START_LINE1,0);
 442:/Users/atakane/Documents/Electronics/IoClock/IoClock/lcd.c ****         }
 443:/Users/atakane/Documents/Electronics/IoClock/IoClock/lcd.c **** #elif LCD_LINES==4
 444:/Users/atakane/Documents/Electronics/IoClock/IoClock/lcd.c ****         if ( pos == LCD_START_LINE1+LCD_DISP_LENGTH ) {
 445:/Users/atakane/Documents/Electronics/IoClock/IoClock/lcd.c ****             lcd_write((1<<LCD_DDRAM)+LCD_START_LINE2,0);    
 446:/Users/atakane/Documents/Electronics/IoClock/IoClock/lcd.c ****         }else if ( pos == LCD_START_LINE2+LCD_DISP_LENGTH ) {
 447:/Users/atakane/Documents/Electronics/IoClock/IoClock/lcd.c ****             lcd_write((1<<LCD_DDRAM)+LCD_START_LINE3,0);
 448:/Users/atakane/Documents/Electronics/IoClock/IoClock/lcd.c ****         }else if ( pos == LCD_START_LINE3+LCD_DISP_LENGTH ) {
 449:/Users/atakane/Documents/Electronics/IoClock/IoClock/lcd.c ****             lcd_write((1<<LCD_DDRAM)+LCD_START_LINE4,0);
 450:/Users/atakane/Documents/Electronics/IoClock/IoClock/lcd.c ****         }else if ( pos == LCD_START_LINE4+LCD_DISP_LENGTH ) {
 451:/Users/atakane/Documents/Electronics/IoClock/IoClock/lcd.c ****             lcd_write((1<<LCD_DDRAM)+LCD_START_LINE1,0);
 452:/Users/atakane/Documents/Electronics/IoClock/IoClock/lcd.c ****         }
 453:/Users/atakane/Documents/Electronics/IoClock/IoClock/lcd.c **** #endif
 454:/Users/atakane/Documents/Electronics/IoClock/IoClock/lcd.c ****         lcd_waitbusy();
 455:/Users/atakane/Documents/Electronics/IoClock/IoClock/lcd.c **** #endif
 456:/Users/atakane/Documents/Electronics/IoClock/IoClock/lcd.c ****         lcd_write(c, 1);
 457:/Users/atakane/Documents/Electronics/IoClock/IoClock/lcd.c ****     }
 458:/Users/atakane/Documents/Electronics/IoClock/IoClock/lcd.c **** 
 459:/Users/atakane/Documents/Electronics/IoClock/IoClock/lcd.c **** }/* lcd_putc */
 650               	.LM101:
 651 013e CF91      		pop r28
 652               	.LBB43:
 653               	.LBB42:
 324:/Users/atakane/Documents/Electronics/IoClock/IoClock/lcd.c ****     lcd_command((1<<LCD_DDRAM)+addressCounter);
 655               	.LM102:
 656 0140 0C94 0000 		jmp lcd_command
 657               	.L78:
 658               	.LBE42:
 659               	.LBE43:
 456:/Users/atakane/Documents/Electronics/IoClock/IoClock/lcd.c ****         lcd_write(c, 1);
 661               	.LM103:
 662 0144 61E0      		ldi r22,lo8(1)
 663 0146 8C2F      		mov r24,r28
 664               	/* epilogue start */
 666               	.LM104:
 667 0148 CF91      		pop r28
 456:/Users/atakane/Documents/Electronics/IoClock/IoClock/lcd.c ****         lcd_write(c, 1);
 669               	.LM105:
 670 014a 0C94 0000 		jmp lcd_write
 681               	.Lscope11:
 684               	.global	lcd_puts
 686               	lcd_puts:
 460:/Users/atakane/Documents/Electronics/IoClock/IoClock/lcd.c **** 
 461:/Users/atakane/Documents/Electronics/IoClock/IoClock/lcd.c **** 
 462:/Users/atakane/Documents/Electronics/IoClock/IoClock/lcd.c **** /*************************************************************************
 463:/Users/atakane/Documents/Electronics/IoClock/IoClock/lcd.c **** Display string without auto linefeed 
 464:/Users/atakane/Documents/Electronics/IoClock/IoClock/lcd.c **** Input:    string to be displayed
 465:/Users/atakane/Documents/Electronics/IoClock/IoClock/lcd.c **** Returns:  none
 466:/Users/atakane/Documents/Electronics/IoClock/IoClock/lcd.c **** *************************************************************************/
 467:/Users/atakane/Documents/Electronics/IoClock/IoClock/lcd.c **** void lcd_puts(const char *s)
 468:/Users/atakane/Documents/Electronics/IoClock/IoClock/lcd.c **** /* print string on lcd (no auto linefeed) */
 469:/Users/atakane/Documents/Electronics/IoClock/IoClock/lcd.c **** {
 688               	.LM106:
 689               	.LFBB12:
 690 014e CF93      		push r28
 691 0150 DF93      		push r29
 692               	/* prologue: function */
 693               	/* frame size = 0 */
 694               	/* stack size = 2 */
 695               	.L__stack_usage = 2
 696 0152 EC01      		movw r28,r24
 697               	.L82:
 470:/Users/atakane/Documents/Electronics/IoClock/IoClock/lcd.c ****     register char c;
 471:/Users/atakane/Documents/Electronics/IoClock/IoClock/lcd.c **** 
 472:/Users/atakane/Documents/Electronics/IoClock/IoClock/lcd.c ****     while ( (c = *s++) ) {
 699               	.LM107:
 700 0154 8991      		ld r24,Y+
 701 0156 8823      		tst r24
 702 0158 01F0      		breq .L84
 473:/Users/atakane/Documents/Electronics/IoClock/IoClock/lcd.c ****         lcd_putc(c);
 704               	.LM108:
 705 015a 0E94 0000 		call lcd_putc
 706 015e 00C0      		rjmp .L82
 707               	.L84:
 708               	/* epilogue start */
 474:/Users/atakane/Documents/Electronics/IoClock/IoClock/lcd.c ****     }
 475:/Users/atakane/Documents/Electronics/IoClock/IoClock/lcd.c **** 
 476:/Users/atakane/Documents/Electronics/IoClock/IoClock/lcd.c **** }/* lcd_puts */
 710               	.LM109:
 711 0160 DF91      		pop r29
 712 0162 CF91      		pop r28
 713 0164 0895      		ret
 718               	.Lscope12:
 721               	.global	lcd_puts_p
 723               	lcd_puts_p:
 477:/Users/atakane/Documents/Electronics/IoClock/IoClock/lcd.c **** 
 478:/Users/atakane/Documents/Electronics/IoClock/IoClock/lcd.c **** 
 479:/Users/atakane/Documents/Electronics/IoClock/IoClock/lcd.c **** /*************************************************************************
 480:/Users/atakane/Documents/Electronics/IoClock/IoClock/lcd.c **** Display string from program memory without auto linefeed 
 481:/Users/atakane/Documents/Electronics/IoClock/IoClock/lcd.c **** Input:     string from program memory be be displayed                                        
 482:/Users/atakane/Documents/Electronics/IoClock/IoClock/lcd.c **** Returns:   none
 483:/Users/atakane/Documents/Electronics/IoClock/IoClock/lcd.c **** *************************************************************************/
 484:/Users/atakane/Documents/Electronics/IoClock/IoClock/lcd.c **** void lcd_puts_p(const char *progmem_s)
 485:/Users/atakane/Documents/Electronics/IoClock/IoClock/lcd.c **** /* print string from program memory on lcd (no auto linefeed) */
 486:/Users/atakane/Documents/Electronics/IoClock/IoClock/lcd.c **** {
 725               	.LM110:
 726               	.LFBB13:
 727 0166 CF93      		push r28
 728 0168 DF93      		push r29
 729               	/* prologue: function */
 730               	/* frame size = 0 */
 731               	/* stack size = 2 */
 732               	.L__stack_usage = 2
 733 016a FC01      		movw r30,r24
 734               	.L86:
 735               	.LBB44:
 487:/Users/atakane/Documents/Electronics/IoClock/IoClock/lcd.c ****     register char c;
 488:/Users/atakane/Documents/Electronics/IoClock/IoClock/lcd.c **** 
 489:/Users/atakane/Documents/Electronics/IoClock/IoClock/lcd.c ****     while ( (c = pgm_read_byte(progmem_s++)) ) {
 737               	.LM111:
 738               	/* #APP */
 739               	 ;  489 "/Users/atakane/Documents/Electronics/IoClock/IoClock/lcd.c" 1
 740 016c 8491      		lpm r24, Z
 741               		
 742               	 ;  0 "" 2
 743               	/* #NOAPP */
 744 016e EF01      		movw r28,r30
 745 0170 2196      		adiw r28,1
 746               	.LBE44:
 747 0172 8823      		tst r24
 748 0174 01F0      		breq .L88
 490:/Users/atakane/Documents/Electronics/IoClock/IoClock/lcd.c ****         lcd_putc(c);
 750               	.LM112:
 751 0176 0E94 0000 		call lcd_putc
 752 017a FE01      		movw r30,r28
 753 017c 00C0      		rjmp .L86
 754               	.L88:
 755               	/* epilogue start */
 491:/Users/atakane/Documents/Electronics/IoClock/IoClock/lcd.c ****     }
 492:/Users/atakane/Documents/Electronics/IoClock/IoClock/lcd.c **** 
 493:/Users/atakane/Documents/Electronics/IoClock/IoClock/lcd.c **** }/* lcd_puts_p */
 757               	.LM113:
 758 017e DF91      		pop r29
 759 0180 CF91      		pop r28
 760 0182 0895      		ret
 765               	.Lscope13:
 768               	.global	lcd_init
 770               	lcd_init:
 494:/Users/atakane/Documents/Electronics/IoClock/IoClock/lcd.c **** 
 495:/Users/atakane/Documents/Electronics/IoClock/IoClock/lcd.c **** 
 496:/Users/atakane/Documents/Electronics/IoClock/IoClock/lcd.c **** /*************************************************************************
 497:/Users/atakane/Documents/Electronics/IoClock/IoClock/lcd.c **** Initialize display and select type of cursor 
 498:/Users/atakane/Documents/Electronics/IoClock/IoClock/lcd.c **** Input:    dispAttr LCD_DISP_OFF            display off
 499:/Users/atakane/Documents/Electronics/IoClock/IoClock/lcd.c ****                    LCD_DISP_ON             display on, cursor off
 500:/Users/atakane/Documents/Electronics/IoClock/IoClock/lcd.c ****                    LCD_DISP_ON_CURSOR      display on, cursor on
 501:/Users/atakane/Documents/Electronics/IoClock/IoClock/lcd.c ****                    LCD_DISP_CURSOR_BLINK   display on, cursor on flashing
 502:/Users/atakane/Documents/Electronics/IoClock/IoClock/lcd.c **** Returns:  none
 503:/Users/atakane/Documents/Electronics/IoClock/IoClock/lcd.c **** *************************************************************************/
 504:/Users/atakane/Documents/Electronics/IoClock/IoClock/lcd.c **** void lcd_init(uint8_t dispAttr)
 505:/Users/atakane/Documents/Electronics/IoClock/IoClock/lcd.c **** {
 772               	.LM114:
 773               	.LFBB14:
 774 0184 CF93      		push r28
 775               	/* prologue: function */
 776               	/* frame size = 0 */
 777               	/* stack size = 1 */
 778               	.L__stack_usage = 1
 779 0186 C82F      		mov r28,r24
 506:/Users/atakane/Documents/Electronics/IoClock/IoClock/lcd.c **** #if LCD_IO_MODE
 507:/Users/atakane/Documents/Electronics/IoClock/IoClock/lcd.c ****     /*
 508:/Users/atakane/Documents/Electronics/IoClock/IoClock/lcd.c ****      *  Initialize LCD to 4 bit I/O mode
 509:/Users/atakane/Documents/Electronics/IoClock/IoClock/lcd.c ****      */
 510:/Users/atakane/Documents/Electronics/IoClock/IoClock/lcd.c ****      
 511:/Users/atakane/Documents/Electronics/IoClock/IoClock/lcd.c ****     if ( ( &LCD_DATA0_PORT == &LCD_DATA1_PORT) && ( &LCD_DATA1_PORT == &LCD_DATA2_PORT ) && ( &LCD_
 512:/Users/atakane/Documents/Electronics/IoClock/IoClock/lcd.c ****       && ( &LCD_RS_PORT == &LCD_DATA0_PORT) && ( &LCD_RW_PORT == &LCD_DATA0_PORT) && (&LCD_E_PORT =
 513:/Users/atakane/Documents/Electronics/IoClock/IoClock/lcd.c ****       && (LCD_DATA0_PIN == 0 ) && (LCD_DATA1_PIN == 1) && (LCD_DATA2_PIN == 2) && (LCD_DATA3_PIN ==
 514:/Users/atakane/Documents/Electronics/IoClock/IoClock/lcd.c ****       && (LCD_RS_PIN == 4 ) && (LCD_RW_PIN == 5) && (LCD_E_PIN == 6 ) )
 515:/Users/atakane/Documents/Electronics/IoClock/IoClock/lcd.c ****     {
 516:/Users/atakane/Documents/Electronics/IoClock/IoClock/lcd.c ****         /* configure all port bits as output (all LCD lines on same port) */
 517:/Users/atakane/Documents/Electronics/IoClock/IoClock/lcd.c ****         DDR(LCD_DATA0_PORT) |= 0x7F;
 518:/Users/atakane/Documents/Electronics/IoClock/IoClock/lcd.c ****     }
 519:/Users/atakane/Documents/Electronics/IoClock/IoClock/lcd.c ****     else if ( ( &LCD_DATA0_PORT == &LCD_DATA1_PORT) && ( &LCD_DATA1_PORT == &LCD_DATA2_PORT ) && ( 
 520:/Users/atakane/Documents/Electronics/IoClock/IoClock/lcd.c ****            && (LCD_DATA0_PIN == 0 ) && (LCD_DATA1_PIN == 1) && (LCD_DATA2_PIN == 2) && (LCD_DATA3_P
 521:/Users/atakane/Documents/Electronics/IoClock/IoClock/lcd.c ****     {
 522:/Users/atakane/Documents/Electronics/IoClock/IoClock/lcd.c ****         /* configure all port bits as output (all LCD data lines on same port, but control lines on
 523:/Users/atakane/Documents/Electronics/IoClock/IoClock/lcd.c ****         DDR(LCD_DATA0_PORT) |= 0x0F;
 524:/Users/atakane/Documents/Electronics/IoClock/IoClock/lcd.c ****         DDR(LCD_RS_PORT)    |= _BV(LCD_RS_PIN);
 525:/Users/atakane/Documents/Electronics/IoClock/IoClock/lcd.c ****         DDR(LCD_RW_PORT)    |= _BV(LCD_RW_PIN);
 526:/Users/atakane/Documents/Electronics/IoClock/IoClock/lcd.c ****         DDR(LCD_E_PORT)     |= _BV(LCD_E_PIN);
 527:/Users/atakane/Documents/Electronics/IoClock/IoClock/lcd.c ****     }
 528:/Users/atakane/Documents/Electronics/IoClock/IoClock/lcd.c ****     else
 529:/Users/atakane/Documents/Electronics/IoClock/IoClock/lcd.c ****     {
 530:/Users/atakane/Documents/Electronics/IoClock/IoClock/lcd.c ****         /* configure all port bits as output (LCD data and control lines on different ports */
 531:/Users/atakane/Documents/Electronics/IoClock/IoClock/lcd.c ****         DDR(LCD_RS_PORT)    |= _BV(LCD_RS_PIN);
 781               	.LM115:
 782 0188 399A      		sbi 0x7,1
 532:/Users/atakane/Documents/Electronics/IoClock/IoClock/lcd.c ****         DDR(LCD_RW_PORT)    |= _BV(LCD_RW_PIN);
 784               	.LM116:
 785 018a 389A      		sbi 0x7,0
 533:/Users/atakane/Documents/Electronics/IoClock/IoClock/lcd.c ****         DDR(LCD_E_PORT)     |= _BV(LCD_E_PIN);
 787               	.LM117:
 788 018c 259A      		sbi 0x4,5
 534:/Users/atakane/Documents/Electronics/IoClock/IoClock/lcd.c ****         DDR(LCD_DATA0_PORT) |= _BV(LCD_DATA0_PIN);
 790               	.LM118:
 791 018e 249A      		sbi 0x4,4
 535:/Users/atakane/Documents/Electronics/IoClock/IoClock/lcd.c ****         DDR(LCD_DATA1_PORT) |= _BV(LCD_DATA1_PIN);
 793               	.LM119:
 794 0190 239A      		sbi 0x4,3
 536:/Users/atakane/Documents/Electronics/IoClock/IoClock/lcd.c ****         DDR(LCD_DATA2_PORT) |= _BV(LCD_DATA2_PIN);
 796               	.LM120:
 797 0192 229A      		sbi 0x4,2
 537:/Users/atakane/Documents/Electronics/IoClock/IoClock/lcd.c ****         DDR(LCD_DATA3_PORT) |= _BV(LCD_DATA3_PIN);
 799               	.LM121:
 800 0194 219A      		sbi 0x4,1
 801               	.LBB45:
 802               	.LBB46:
 804               	.Ltext11:
 806               	.LM122:
 807 0196 8FEF      		ldi r24,lo8(31999)
 808 0198 9CE7      		ldi r25,hi8(31999)
 809 019a 0197      		1: sbiw r24,1
 810 019c 01F4      		brne 1b
 811 019e 00C0      		rjmp .
 812 01a0 0000      		nop
 813               	.LBE46:
 814               	.LBE45:
 816               	.Ltext12:
 538:/Users/atakane/Documents/Electronics/IoClock/IoClock/lcd.c ****     }
 539:/Users/atakane/Documents/Electronics/IoClock/IoClock/lcd.c ****     delay(LCD_DELAY_BOOTUP);             /* wait 16ms or more after power-on       */
 540:/Users/atakane/Documents/Electronics/IoClock/IoClock/lcd.c ****     
 541:/Users/atakane/Documents/Electronics/IoClock/IoClock/lcd.c ****     /* initial write to lcd is 8bit */
 542:/Users/atakane/Documents/Electronics/IoClock/IoClock/lcd.c ****     LCD_DATA1_PORT |= _BV(LCD_DATA1_PIN);    // LCD_FUNCTION>>4;
 818               	.LM123:
 819 01a2 2B9A      		sbi 0x5,3
 543:/Users/atakane/Documents/Electronics/IoClock/IoClock/lcd.c ****     LCD_DATA0_PORT |= _BV(LCD_DATA0_PIN);    // LCD_FUNCTION_8BIT>>4;
 821               	.LM124:
 822 01a4 2C9A      		sbi 0x5,4
 544:/Users/atakane/Documents/Electronics/IoClock/IoClock/lcd.c ****     lcd_e_toggle();
 824               	.LM125:
 825 01a6 0E94 0000 		call toggle_e
 826               	.LBB47:
 827               	.LBB48:
 829               	.Ltext13:
 831               	.LM126:
 832 01aa 8FE0      		ldi r24,lo8(9999)
 833 01ac 97E2      		ldi r25,hi8(9999)
 834 01ae 0197      		1: sbiw r24,1
 835 01b0 01F4      		brne 1b
 836 01b2 00C0      		rjmp .
 837 01b4 0000      		nop
 838               	.LBE48:
 839               	.LBE47:
 841               	.Ltext14:
 545:/Users/atakane/Documents/Electronics/IoClock/IoClock/lcd.c ****     delay(LCD_DELAY_INIT);               /* delay, busy flag can't be checked here */
 546:/Users/atakane/Documents/Electronics/IoClock/IoClock/lcd.c ****    
 547:/Users/atakane/Documents/Electronics/IoClock/IoClock/lcd.c ****     /* repeat last command */ 
 548:/Users/atakane/Documents/Electronics/IoClock/IoClock/lcd.c ****     lcd_e_toggle();      
 843               	.LM127:
 844 01b6 0E94 0000 		call toggle_e
 845               	.LBB49:
 846               	.LBB50:
 848               	.Ltext15:
 850               	.LM128:
 851 01ba 9AEA      		ldi r25,lo8(-86)
 852 01bc 9A95      		1: dec r25
 853 01be 01F4      		brne 1b
 854 01c0 00C0      		rjmp .
 855               	.LBE50:
 856               	.LBE49:
 858               	.Ltext16:
 549:/Users/atakane/Documents/Electronics/IoClock/IoClock/lcd.c ****     delay(LCD_DELAY_INIT_REP);           /* delay, busy flag can't be checked here */
 550:/Users/atakane/Documents/Electronics/IoClock/IoClock/lcd.c ****     
 551:/Users/atakane/Documents/Electronics/IoClock/IoClock/lcd.c ****     /* repeat last command a third time */
 552:/Users/atakane/Documents/Electronics/IoClock/IoClock/lcd.c ****     lcd_e_toggle();      
 860               	.LM129:
 861 01c2 0E94 0000 		call toggle_e
 862               	.LBB51:
 863               	.LBB52:
 865               	.Ltext17:
 867               	.LM130:
 868 01c6 8AEA      		ldi r24,lo8(-86)
 869 01c8 8A95      		1: dec r24
 870 01ca 01F4      		brne 1b
 871 01cc 00C0      		rjmp .
 872               	.LBE52:
 873               	.LBE51:
 875               	.Ltext18:
 553:/Users/atakane/Documents/Electronics/IoClock/IoClock/lcd.c ****     delay(LCD_DELAY_INIT_REP);           /* delay, busy flag can't be checked here */
 554:/Users/atakane/Documents/Electronics/IoClock/IoClock/lcd.c **** 
 555:/Users/atakane/Documents/Electronics/IoClock/IoClock/lcd.c ****     /* now configure for 4bit mode */
 556:/Users/atakane/Documents/Electronics/IoClock/IoClock/lcd.c ****     LCD_DATA0_PORT &= ~_BV(LCD_DATA0_PIN);   // LCD_FUNCTION_4BIT_1LINE>>4
 877               	.LM131:
 878 01ce 2C98      		cbi 0x5,4
 557:/Users/atakane/Documents/Electronics/IoClock/IoClock/lcd.c ****     lcd_e_toggle();
 880               	.LM132:
 881 01d0 0E94 0000 		call toggle_e
 882               	.LBB53:
 883               	.LBB54:
 885               	.Ltext19:
 887               	.LM133:
 888 01d4 9AEA      		ldi r25,lo8(-86)
 889 01d6 9A95      		1: dec r25
 890 01d8 01F4      		brne 1b
 891 01da 00C0      		rjmp .
 892               	.LBE54:
 893               	.LBE53:
 895               	.Ltext20:
 558:/Users/atakane/Documents/Electronics/IoClock/IoClock/lcd.c ****     delay(LCD_DELAY_INIT_4BIT);          /* some displays need this additional delay */
 559:/Users/atakane/Documents/Electronics/IoClock/IoClock/lcd.c ****     
 560:/Users/atakane/Documents/Electronics/IoClock/IoClock/lcd.c ****     /* from now the LCD only accepts 4 bit I/O, we can use lcd_command() */    
 561:/Users/atakane/Documents/Electronics/IoClock/IoClock/lcd.c **** #else
 562:/Users/atakane/Documents/Electronics/IoClock/IoClock/lcd.c ****     /*
 563:/Users/atakane/Documents/Electronics/IoClock/IoClock/lcd.c ****      * Initialize LCD to 8 bit memory mapped mode
 564:/Users/atakane/Documents/Electronics/IoClock/IoClock/lcd.c ****      */
 565:/Users/atakane/Documents/Electronics/IoClock/IoClock/lcd.c ****     
 566:/Users/atakane/Documents/Electronics/IoClock/IoClock/lcd.c ****     /* enable external SRAM (memory mapped lcd) and one wait state */        
 567:/Users/atakane/Documents/Electronics/IoClock/IoClock/lcd.c ****     MCUCR = _BV(SRE) | _BV(SRW);
 568:/Users/atakane/Documents/Electronics/IoClock/IoClock/lcd.c **** 
 569:/Users/atakane/Documents/Electronics/IoClock/IoClock/lcd.c ****     /* reset LCD */
 570:/Users/atakane/Documents/Electronics/IoClock/IoClock/lcd.c ****     delay(LCD_DELAY_BOOTUP);                    /* wait 16ms after power-on     */
 571:/Users/atakane/Documents/Electronics/IoClock/IoClock/lcd.c ****     lcd_write(LCD_FUNCTION_8BIT_1LINE,0);   /* function set: 8bit interface */                   
 572:/Users/atakane/Documents/Electronics/IoClock/IoClock/lcd.c ****     delay(LCD_DELAY_INIT);                      /* wait 5ms                     */
 573:/Users/atakane/Documents/Electronics/IoClock/IoClock/lcd.c ****     lcd_write(LCD_FUNCTION_8BIT_1LINE,0);   /* function set: 8bit interface */                 
 574:/Users/atakane/Documents/Electronics/IoClock/IoClock/lcd.c ****     delay(LCD_DELAY_INIT_REP);                  /* wait 64us                    */
 575:/Users/atakane/Documents/Electronics/IoClock/IoClock/lcd.c ****     lcd_write(LCD_FUNCTION_8BIT_1LINE,0);   /* function set: 8bit interface */                
 576:/Users/atakane/Documents/Electronics/IoClock/IoClock/lcd.c ****     delay(LCD_DELAY_INIT_REP);                  /* wait 64us                    */
 577:/Users/atakane/Documents/Electronics/IoClock/IoClock/lcd.c **** #endif
 578:/Users/atakane/Documents/Electronics/IoClock/IoClock/lcd.c **** 
 579:/Users/atakane/Documents/Electronics/IoClock/IoClock/lcd.c **** #if KS0073_4LINES_MODE
 580:/Users/atakane/Documents/Electronics/IoClock/IoClock/lcd.c ****     /* Display with KS0073 controller requires special commands for enabling 4 line mode */
 581:/Users/atakane/Documents/Electronics/IoClock/IoClock/lcd.c **** 	lcd_command(KS0073_EXTENDED_FUNCTION_REGISTER_ON);
 582:/Users/atakane/Documents/Electronics/IoClock/IoClock/lcd.c **** 	lcd_command(KS0073_4LINES_MODE);
 583:/Users/atakane/Documents/Electronics/IoClock/IoClock/lcd.c **** 	lcd_command(KS0073_EXTENDED_FUNCTION_REGISTER_OFF);
 584:/Users/atakane/Documents/Electronics/IoClock/IoClock/lcd.c **** #else
 585:/Users/atakane/Documents/Electronics/IoClock/IoClock/lcd.c ****     lcd_command(LCD_FUNCTION_DEFAULT);      /* function set: display lines  */
 897               	.LM134:
 898 01dc 88E2      		ldi r24,lo8(40)
 899 01de 0E94 0000 		call lcd_command
 586:/Users/atakane/Documents/Electronics/IoClock/IoClock/lcd.c **** #endif
 587:/Users/atakane/Documents/Electronics/IoClock/IoClock/lcd.c ****     lcd_command(LCD_DISP_OFF);              /* display off                  */
 901               	.LM135:
 902 01e2 88E0      		ldi r24,lo8(8)
 903 01e4 0E94 0000 		call lcd_command
 588:/Users/atakane/Documents/Electronics/IoClock/IoClock/lcd.c ****     lcd_clrscr();                           /* display clear                */ 
 905               	.LM136:
 906 01e8 0E94 0000 		call lcd_clrscr
 589:/Users/atakane/Documents/Electronics/IoClock/IoClock/lcd.c ****     lcd_command(LCD_MODE_DEFAULT);          /* set entry mode               */
 908               	.LM137:
 909 01ec 86E0      		ldi r24,lo8(6)
 910 01ee 0E94 0000 		call lcd_command
 590:/Users/atakane/Documents/Electronics/IoClock/IoClock/lcd.c ****     lcd_command(dispAttr);                  /* display/cursor control       */
 912               	.LM138:
 913 01f2 8C2F      		mov r24,r28
 914               	/* epilogue start */
 591:/Users/atakane/Documents/Electronics/IoClock/IoClock/lcd.c **** 
 592:/Users/atakane/Documents/Electronics/IoClock/IoClock/lcd.c **** }/* lcd_init */
 916               	.LM139:
 917 01f4 CF91      		pop r28
 590:/Users/atakane/Documents/Electronics/IoClock/IoClock/lcd.c ****     lcd_command(dispAttr);                  /* display/cursor control       */
 919               	.LM140:
 920 01f6 0C94 0000 		jmp lcd_command
 922               	.Lscope14:
 924               	.Letext0:
 925               		.ident	"GCC: (GNU) 4.8.1"
DEFINED SYMBOLS
                            *ABS*:00000000 lcd.c
/var/folders/2t/x0mw6nss4_z3npyvmny7gnnm0000gn/T//cclWdmLl.s:2      *ABS*:0000003e __SP_H__
/var/folders/2t/x0mw6nss4_z3npyvmny7gnnm0000gn/T//cclWdmLl.s:3      *ABS*:0000003d __SP_L__
/var/folders/2t/x0mw6nss4_z3npyvmny7gnnm0000gn/T//cclWdmLl.s:4      *ABS*:0000003f __SREG__
/var/folders/2t/x0mw6nss4_z3npyvmny7gnnm0000gn/T//cclWdmLl.s:5      *ABS*:00000000 __tmp_reg__
/var/folders/2t/x0mw6nss4_z3npyvmny7gnnm0000gn/T//cclWdmLl.s:6      *ABS*:00000001 __zero_reg__
/var/folders/2t/x0mw6nss4_z3npyvmny7gnnm0000gn/T//cclWdmLl.s:106    .text:00000000 toggle_e
/var/folders/2t/x0mw6nss4_z3npyvmny7gnnm0000gn/T//cclWdmLl.s:141    .text:0000000e lcd_write
/var/folders/2t/x0mw6nss4_z3npyvmny7gnnm0000gn/T//cclWdmLl.s:293    .text:00000078 lcd_read.constprop.0
/var/folders/2t/x0mw6nss4_z3npyvmny7gnnm0000gn/T//cclWdmLl.s:431    .text:000000cc lcd_waitbusy
/var/folders/2t/x0mw6nss4_z3npyvmny7gnnm0000gn/T//cclWdmLl.s:468    .text:000000e0 lcd_command
/var/folders/2t/x0mw6nss4_z3npyvmny7gnnm0000gn/T//cclWdmLl.s:498    .text:000000f2 lcd_data
/var/folders/2t/x0mw6nss4_z3npyvmny7gnnm0000gn/T//cclWdmLl.s:529    .text:00000104 lcd_gotoxy
/var/folders/2t/x0mw6nss4_z3npyvmny7gnnm0000gn/T//cclWdmLl.s:556    .text:00000112 lcd_getxy
/var/folders/2t/x0mw6nss4_z3npyvmny7gnnm0000gn/T//cclWdmLl.s:576    .text:0000011a lcd_clrscr
/var/folders/2t/x0mw6nss4_z3npyvmny7gnnm0000gn/T//cclWdmLl.s:593    .text:00000120 lcd_home
/var/folders/2t/x0mw6nss4_z3npyvmny7gnnm0000gn/T//cclWdmLl.s:611    .text:00000126 lcd_putc
/var/folders/2t/x0mw6nss4_z3npyvmny7gnnm0000gn/T//cclWdmLl.s:686    .text:0000014e lcd_puts
/var/folders/2t/x0mw6nss4_z3npyvmny7gnnm0000gn/T//cclWdmLl.s:723    .text:00000166 lcd_puts_p
/var/folders/2t/x0mw6nss4_z3npyvmny7gnnm0000gn/T//cclWdmLl.s:770    .text:00000184 lcd_init

NO UNDEFINED SYMBOLS
